	.file	"cg.f"
	.text
	.p2align 4
	.type	ran2_.constprop.0, @function
ran2_.constprop.0:
.LFB60:
	.cfi_startproc
	movl	rans_(%rip), %edx
	testl	%edx, %edx
	jle	.L2
	movl	idum2.27(%rip), %r8d
	movl	iy.25(%rip), %esi
.L3:
	movslq	%edx, %rcx
	imulq	$327796565, %rcx, %rcx
	movl	%edx, %eax
	sarl	$31, %eax
	sarq	$44, %rcx
	subl	%eax, %ecx
	imull	$-53668, %ecx, %eax
	imull	$-12211, %ecx, %ecx
	addl	%edx, %eax
	imull	$40014, %eax, %eax
	addl	%eax, %ecx
	jns	.L13
	addl	$2147483563, %ecx
.L13:
	movslq	%r8d, %rax
	imulq	$1333397965, %rax, %rax
	movl	%r8d, %edx
	sarl	$31, %edx
	sarq	$46, %rax
	subl	%edx, %eax
	imull	$-52774, %eax, %edx
	imull	$-3791, %eax, %eax
	movl	%ecx, rans_(%rip)
	addl	%r8d, %edx
	imull	$40692, %edx, %edx
	addl	%eax, %edx
	jns	.L14
	addl	$2147483399, %edx
.L14:
	movslq	%esi, %rax
	imulq	$-2147483583, %rax, %rax
	leaq	iv.26(%rip), %rdi
	movl	%edx, idum2.27(%rip)
	shrq	$32, %rax
	addl	%esi, %eax
	sarl	$25, %eax
	sarl	$31, %esi
	subl	%esi, %eax
	cltq
	movl	(%rdi,%rax,4), %esi
	movl	%ecx, (%rdi,%rax,4)
	subl	%edx, %esi
	movl	%esi, iy.25(%rip)
	testl	%esi, %esi
	jg	.L11
	addl	$2147483562, %esi
	movl	%esi, iy.25(%rip)
.L11:
	vxorps	%xmm0, %xmm0, %xmm0
	vcvtsi2sdl	%esi, %xmm0, %xmm0
	vmulsd	.LC0(%rip), %xmm0, %xmm0
	vminsd	.LC1(%rip), %xmm0, %xmm0
	ret
	.p2align 4,,10
	.p2align 3
.L2:
	negl	%edx
	movl	$1, %eax
	movl	%edx, %r8d
	cmpl	%eax, %edx
	cmovl	%eax, %r8d
	movl	$40, %esi
	movl	%r8d, %edx
	leaq	-4+iv.26(%rip), %rdi
	.p2align 4,,10
	.p2align 3
.L6:
	movslq	%edx, %rax
	imulq	$327796565, %rax, %rax
	movl	%edx, %ecx
	sarl	$31, %ecx
	sarq	$44, %rax
	subl	%ecx, %eax
	imull	$-53668, %eax, %ecx
	imull	$-12211, %eax, %eax
	addl	%ecx, %edx
	imull	$40014, %edx, %edx
	addl	%eax, %edx
	leal	2147483563(%rdx), %eax
	cmovs	%eax, %edx
	cmpq	$32, %rsi
	ja	.L5
	movl	%edx, (%rdi,%rsi,4)
.L5:
	decq	%rsi
	jne	.L6
	movl	iv.26(%rip), %esi
	jmp	.L3
	.cfi_endproc
.LFE60:
	.size	ran2_.constprop.0, .-ran2_.constprop.0
	.section	.rodata.str1.1,"aMS",@progbits,1
.LC2:
	.string	"cg.f"
.LC3:
	.string	"(a,f10.1,4x,a,f10.4,4x,a,f8.4)"
.LC4:
	.string	"TIME ="
.LC5:
	.string	"ENERGY ="
.LC6:
	.string	"RMSD ="
.LC7:
	.string	"(3f9.3)"
	.text
	.p2align 4
	.type	print_conf_xyz_.constprop.0, @function
print_conf_xyz_.constprop.0:
.LFB59:
	.cfi_startproc
	pushq	%r15
	.cfi_def_cfa_offset 16
	.cfi_offset 15, -16
	leaq	.LC2(%rip), %r15
	pushq	%r14
	.cfi_def_cfa_offset 24
	.cfi_offset 14, -24
	pushq	%r13
	.cfi_def_cfa_offset 32
	.cfi_offset 13, -32
	movq	%rsi, %r13
	pushq	%r12
	.cfi_def_cfa_offset 40
	.cfi_offset 12, -40
	movq	%rdx, %r12
	pushq	%rbp
	.cfi_def_cfa_offset 48
	.cfi_offset 6, -48
	movq	%rcx, %rbp
	pushq	%rbx
	.cfi_def_cfa_offset 56
	.cfi_offset 3, -56
	subq	$584, %rsp
	.cfi_def_cfa_offset 640
	leaq	32(%rsp), %rbx
	movq	%fs:40, %rax
	movq	%rax, 568(%rsp)
	xorl	%eax, %eax
	leaq	.LC3(%rip), %rax
	movq	%rax, 112(%rsp)
	movq	%rbx, %rdi
	movabsq	$8589938688, %rax
	movq	%rax, 32(%rsp)
	movq	%r15, 40(%rsp)
	movl	$6613, 48(%rsp)
	movq	$30, 120(%rsp)
	call	_gfortran_st_write@PLT
	movl	$6, %edx
	leaq	.LC4(%rip), %rsi
	movq	%rbx, %rdi
	call	_gfortran_transfer_character_write@PLT
	movl	$8, %edx
	movq	%r13, %rsi
	movq	%rbx, %rdi
	call	_gfortran_transfer_real_write@PLT
	movl	$8, %edx
	leaq	.LC5(%rip), %rsi
	movq	%rbx, %rdi
	call	_gfortran_transfer_character_write@PLT
	movq	%r12, %rsi
	movl	$8, %edx
	movq	%rbx, %rdi
	call	_gfortran_transfer_real_write@PLT
	movl	$6, %edx
	leaq	.LC6(%rip), %rsi
	movq	%rbx, %rdi
	call	_gfortran_transfer_character_write@PLT
	vmovsd	0(%rbp), %xmm0
	leaq	24(%rsp), %r12
	vmulsd	bas_(%rip), %xmm0, %xmm0
	movl	$8, %edx
	movq	%r12, %rsi
	movq	%rbx, %rdi
	vmovsd	%xmm0, 24(%rsp)
	call	_gfortran_transfer_real_write@PLT
	movq	%rbx, %rdi
	call	_gfortran_st_write_done@PLT
	movl	8+bas_(%rip), %eax
	movl	%eax, 12(%rsp)
	testl	%eax, %eax
	jle	.L16
	leaq	pos_(%rip), %rbp
	movl	$1, %r14d
	leaq	bas_(%rip), %r13
	.p2align 4,,10
	.p2align 3
.L18:
	leaq	.LC7(%rip), %rax
	movq	%rax, 112(%rsp)
	movq	%rbx, %rdi
	movabsq	$8589938688, %rax
	movq	%rax, 32(%rsp)
	movq	%r15, 40(%rsp)
	movl	$6617, 48(%rsp)
	movq	$7, 120(%rsp)
	call	_gfortran_st_write@PLT
	vmovsd	0(%rbp), %xmm0
	movl	$8, %edx
	vmulsd	0(%r13), %xmm0, %xmm0
	movq	%r12, %rsi
	movq	%rbx, %rdi
	incl	%r14d
	addq	$8, %rbp
	vmovsd	%xmm0, 24(%rsp)
	call	_gfortran_transfer_real_write@PLT
	vmovsd	79992(%rbp), %xmm0
	movl	$8, %edx
	vmulsd	0(%r13), %xmm0, %xmm0
	movq	%r12, %rsi
	movq	%rbx, %rdi
	vmovsd	%xmm0, 24(%rsp)
	call	_gfortran_transfer_real_write@PLT
	vmovsd	159992(%rbp), %xmm0
	movl	$8, %edx
	vmulsd	0(%r13), %xmm0, %xmm0
	movq	%r12, %rsi
	movq	%rbx, %rdi
	vmovsd	%xmm0, 24(%rsp)
	call	_gfortran_transfer_real_write@PLT
	movq	%rbx, %rdi
	call	_gfortran_st_write_done@PLT
	cmpl	%r14d, 12(%rsp)
	jge	.L18
.L16:
	movq	568(%rsp), %rax
	subq	%fs:40, %rax
	jne	.L23
	addq	$584, %rsp
	.cfi_remember_state
	.cfi_def_cfa_offset 56
	popq	%rbx
	.cfi_def_cfa_offset 48
	popq	%rbp
	.cfi_def_cfa_offset 40
	popq	%r12
	.cfi_def_cfa_offset 32
	popq	%r13
	.cfi_def_cfa_offset 24
	popq	%r14
	.cfi_def_cfa_offset 16
	popq	%r15
	.cfi_def_cfa_offset 8
	ret
.L23:
	.cfi_restore_state
	call	__stack_chk_fail@PLT
	.cfi_endproc
.LFE59:
	.size	print_conf_xyz_.constprop.0, .-print_conf_xyz_.constprop.0
	.p2align 4
	.globl	dihedral_
	.type	dihedral_, @function
dihedral_:
.LFB0:
	.cfi_startproc
	pushq	%rbx
	.cfi_def_cfa_offset 16
	.cfi_offset 3, -16
	movq	%rdi, %rbx
	subq	$48, %rsp
	.cfi_def_cfa_offset 64
	vmovsd	48+four_(%rip), %xmm3
	vmovsd	40+four_(%rip), %xmm9
	vmovsd	72+four_(%rip), %xmm2
	vsubsd	32+four_(%rip), %xmm9, %xmm10
	vsubsd	64+four_(%rip), %xmm2, %xmm7
	vsubsd	%xmm9, %xmm3, %xmm9
	vmovsd	80+four_(%rip), %xmm0
	vmovsd	8+four_(%rip), %xmm1
	vmulsd	%xmm9, %xmm7, %xmm8
	vmovsd	16+four_(%rip), %xmm4
	vmovsd	24+four_(%rip), %xmm6
	vsubsd	four_(%rip), %xmm1, %xmm5
	vsubsd	%xmm2, %xmm0, %xmm2
	vsubsd	%xmm1, %xmm4, %xmm1
	vsubsd	%xmm4, %xmm6, %xmm4
	vmovsd	56+four_(%rip), %xmm6
	vfmsub231sd	%xmm2, %xmm10, %xmm8
	vsubsd	%xmm3, %xmm6, %xmm6
	vmulsd	%xmm1, %xmm10, %xmm10
	vmovsd	88+four_(%rip), %xmm3
	vmovsd	%xmm4, 32(%rsp)
	vsubsd	%xmm0, %xmm3, %xmm3
	vmulsd	%xmm2, %xmm5, %xmm0
	vfmsub132sd	%xmm9, %xmm10, %xmm5
	vmulsd	%xmm3, %xmm1, %xmm11
	vmulsd	%xmm6, %xmm2, %xmm10
	vmovsd	%xmm3, 40(%rsp)
	vfmsub132sd	%xmm1, %xmm0, %xmm7
	vmovsd	%xmm6, 24(%rsp)
	vfmsub132sd	%xmm4, %xmm11, %xmm2
	vfmsub231sd	%xmm3, %xmm9, %xmm10
	vmulsd	%xmm4, %xmm9, %xmm9
	vmulsd	%xmm7, %xmm7, %xmm0
	vmovsd	%xmm7, 16(%rsp)
	vmovsd	%xmm8, 8(%rsp)
	vmovsd	%xmm5, (%rsp)
	vfmsub132sd	%xmm6, %xmm9, %xmm1
	vmulsd	%xmm2, %xmm2, %xmm9
	vfmadd231sd	%xmm8, %xmm8, %xmm0
	vmulsd	%xmm2, %xmm7, %xmm2
	vfmadd231sd	%xmm10, %xmm10, %xmm9
	vfmadd231sd	%xmm5, %xmm5, %xmm0
	vfmadd231sd	%xmm10, %xmm8, %xmm2
	vfmadd231sd	%xmm1, %xmm1, %xmm9
	vfmadd132sd	%xmm5, %xmm2, %xmm1
	vmulsd	%xmm9, %xmm0, %xmm0
	vsqrtsd	%xmm0, %xmm0, %xmm0
	vdivsd	%xmm0, %xmm1, %xmm0
	vminsd	.LC8(%rip), %xmm0, %xmm0
	vmaxsd	.LC9(%rip), %xmm0, %xmm0
	call	acos@PLT
	vmovsd	16(%rsp), %xmm7
	vmovsd	24(%rsp), %xmm6
	vmovsd	8(%rsp), %xmm8
	vmulsd	%xmm7, %xmm6, %xmm6
	vmovsd	32(%rsp), %xmm4
	vmovsd	(%rsp), %xmm5
	vmovsd	40(%rsp), %xmm3
	vfmadd132sd	%xmm8, %xmm6, %xmm4
	vfmadd132sd	%xmm5, %xmm4, %xmm3
	vxorpd	%xmm4, %xmm4, %xmm4
	vxorpd	.LC11(%rip), %xmm0, %xmm5
	vcmpnltsd	%xmm4, %xmm3, %xmm3
	vblendvpd	%xmm3, %xmm0, %xmm5, %xmm3
	vmovsd	%xmm3, (%rbx)
	addq	$48, %rsp
	.cfi_def_cfa_offset 16
	popq	%rbx
	.cfi_def_cfa_offset 8
	ret
	.cfi_endproc
.LFE0:
	.size	dihedral_, .-dihedral_
	.p2align 4
	.globl	bondangle_
	.type	bondangle_, @function
bondangle_:
.LFB1:
	.cfi_startproc
	vmovsd	40+four_(%rip), %xmm4
	vmovsd	8+four_(%rip), %xmm3
	vsubsd	32+four_(%rip), %xmm4, %xmm7
	vsubsd	48+four_(%rip), %xmm4, %xmm4
	vsubsd	four_(%rip), %xmm3, %xmm6
	vmulsd	%xmm7, %xmm7, %xmm0
	vmulsd	%xmm4, %xmm4, %xmm5
	vsubsd	16+four_(%rip), %xmm3, %xmm3
	vmovsd	72+four_(%rip), %xmm2
	vmulsd	%xmm4, %xmm7, %xmm4
	vfmadd231sd	%xmm6, %xmm6, %xmm0
	vfmadd231sd	%xmm3, %xmm3, %xmm5
	vsubsd	64+four_(%rip), %xmm2, %xmm1
	vsubsd	80+four_(%rip), %xmm2, %xmm2
	vfmadd132sd	%xmm3, %xmm4, %xmm6
	vfmadd231sd	%xmm1, %xmm1, %xmm0
	vfmadd231sd	%xmm2, %xmm2, %xmm5
	pushq	%rbx
	.cfi_def_cfa_offset 16
	.cfi_offset 3, -16
	movq	%rdi, %rbx
	vfmadd132sd	%xmm2, %xmm6, %xmm1
	vmulsd	%xmm5, %xmm0, %xmm0
	vsqrtsd	%xmm0, %xmm0, %xmm0
	vdivsd	%xmm0, %xmm1, %xmm0
	vminsd	.LC8(%rip), %xmm0, %xmm0
	vmaxsd	.LC9(%rip), %xmm0, %xmm0
	call	acos@PLT
	vmovsd	%xmm0, (%rbx)
	popq	%rbx
	.cfi_def_cfa_offset 8
	ret
	.cfi_endproc
.LFE1:
	.size	bondangle_, .-bondangle_
	.section	.rodata.str1.1
.LC12:
	.string	"NSTACK too small in sort"
	.text
	.p2align 4
	.globl	sort2_
	.type	sort2_, @function
sort2_:
.LFB2:
	.cfi_startproc
	pushq	%r15
	.cfi_def_cfa_offset 16
	.cfi_offset 15, -16
	movq	%rsi, %rcx
	movl	$1, %r10d
	pushq	%r14
	.cfi_def_cfa_offset 24
	.cfi_offset 14, -24
	movq	%rdx, %rsi
	movl	$2, %r14d
	pushq	%r13
	.cfi_def_cfa_offset 32
	.cfi_offset 13, -32
	pushq	%r12
	.cfi_def_cfa_offset 40
	.cfi_offset 12, -40
	pushq	%rbp
	.cfi_def_cfa_offset 48
	.cfi_offset 6, -48
	xorl	%ebp, %ebp
	pushq	%rbx
	.cfi_def_cfa_offset 56
	.cfi_offset 3, -56
	subq	$2552, %rsp
	.cfi_def_cfa_offset 2608
	movq	%fs:40, %rax
	movq	%rax, 2536(%rsp)
	xorl	%eax, %eax
	movl	(%rdi), %ebx
	.p2align 4,,10
	.p2align 3
.L31:
	movl	%ebx, %eax
	subl	%r10d, %eax
	cmpl	$6, %eax
	jg	.L32
.L68:
	movslq	%r14d, %rdi
	cmpl	%r14d, %ebx
	jl	.L40
	.p2align 4,,10
	.p2align 3
.L41:
	vmovsd	-8(%rcx,%rdi,8), %xmm1
	movl	-4(%rsi,%rdi,4), %r8d
	movslq	%r10d, %rax
	testl	%r10d, %r10d
	jg	.L39
	jmp	.L38
	.p2align 4,,10
	.p2align 3
.L66:
	movl	-4(%rsi,%rax,4), %edx
	vmovsd	%xmm0, (%rcx,%rax,8)
	movl	%edx, (%rsi,%rax,4)
	decq	%rax
	testl	%eax, %eax
	jle	.L38
.L39:
	vmovsd	-8(%rcx,%rax,8), %xmm0
	movq	%rax, %rdx
	vcomisd	%xmm0, %xmm1
	jb	.L66
.L37:
	incq	%rdi
	movl	%r8d, (%rsi,%rdx,4)
	vmovsd	%xmm1, (%rcx,%rdx,8)
	incl	%r10d
	cmpl	%edi, %ebx
	jge	.L41
.L40:
	testl	%ebp, %ebp
	je	.L67
	movslq	%ebp, %rax
	movl	524(%rsp,%rax,4), %ebx
	movl	520(%rsp,%rax,4), %r10d
	movl	%ebx, %eax
	subl	%r10d, %eax
	subl	$2, %ebp
	leal	1(%r10), %r14d
	cmpl	$6, %eax
	jle	.L68
.L32:
	leal	(%rbx,%r10), %edx
	movl	%edx, %eax
	shrl	$31, %eax
	addl	%edx, %eax
	sarl	%eax
	movslq	%r10d, %rdx
	decl	%eax
	leaq	(%rcx,%rdx,8), %r13
	leaq	(%rsi,%rdx,4), %r12
	cltq
	vmovsd	0(%r13), %xmm0
	movl	(%r12), %r8d
	vmovsd	(%rcx,%rax,8), %xmm1
	movl	(%rsi,%rax,4), %edi
	vmovsd	%xmm0, (%rcx,%rax,8)
	movl	%r8d, (%rsi,%rax,4)
	movslq	%ebx, %rax
	decq	%rax
	vmovsd	%xmm1, 0(%r13)
	vmovsd	(%rcx,%rax,8), %xmm0
	movl	%edi, (%r12)
	vcomisd	%xmm0, %xmm1
	jbe	.L43
	movl	(%rsi,%rax,4), %r8d
	vmovsd	%xmm0, 0(%r13)
	movl	%r8d, (%r12)
	movl	%edi, (%rsi,%rax,4)
	vmovsd	%xmm1, (%rcx,%rax,8)
	vmovsd	%xmm1, %xmm1, %xmm0
.L43:
	vmovsd	-8(%r13), %xmm1
	decq	%rdx
	vcomisd	%xmm0, %xmm1
	movl	-4(%r12), %r15d
	jbe	.L45
	movl	(%rsi,%rax,4), %edi
	vmovsd	%xmm0, -8(%r13)
	movl	%edi, -4(%r12)
	movl	%r15d, (%rsi,%rax,4)
	vmovsd	%xmm1, (%rcx,%rax,8)
	vmovsd	-8(%r13), %xmm1
	movl	-4(%r12), %r15d
.L45:
	vmovsd	0(%r13), %xmm0
	vcomisd	%xmm1, %xmm0
	jbe	.L47
	movl	(%r12), %eax
	vunpcklpd	%xmm1, %xmm0, %xmm1
	movl	%eax, -4(%r12)
	movl	%r15d, (%r12)
	vmovupd	%xmm1, (%rcx,%rdx,8)
	movl	%eax, %r15d
	vmovsd	%xmm0, %xmm0, %xmm1
.L47:
	leal	2(%r10), %r8d
	movslq	%r8d, %r8
	movl	%ebx, %edx
	.p2align 4,,10
	.p2align 3
.L49:
	vmovsd	-8(%rcx,%r8,8), %xmm2
	movl	%r8d, %r11d
	vcomisd	%xmm2, %xmm1
	ja	.L50
	movslq	%edx, %rax
	subq	$2, %rax
	.p2align 4,,10
	.p2align 3
.L51:
	movq	%rax, %rdi
	decq	%rax
	vmovsd	8(%rcx,%rax,8), %xmm0
	movl	%edx, %r9d
	decl	%edx
	vcomisd	%xmm1, %xmm0
	ja	.L51
	movl	(%rsi,%rdi,4), %eax
	cmpl	%r8d, %edx
	jl	.L52
	movl	-4(%rsi,%r8,4), %r9d
	movl	%eax, -4(%rsi,%r8,4)
	movl	%r9d, (%rsi,%rdi,4)
	vmovsd	%xmm0, -8(%rcx,%r8,8)
	vmovsd	%xmm2, (%rcx,%rdi,8)
.L50:
	incq	%r8
	jmp	.L49
	.p2align 4,,10
	.p2align 3
.L38:
	xorl	%edx, %edx
	jmp	.L37
	.p2align 4,,10
	.p2align 3
.L52:
	movl	%eax, -4(%r12)
	vmovsd	%xmm0, -8(%r13)
	movl	%r15d, (%rsi,%rdi,4)
	vmovsd	%xmm1, (%rcx,%rdi,8)
	leal	2(%rbp), %edi
	cmpl	$500, %edi
	jg	.L69
	movl	%ebx, %eax
	subl	%r11d, %eax
	incl	%eax
	subl	%r10d, %edx
	subl	$2, %r9d
	movslq	%ebp, %rbp
	cmpl	%edx, %eax
	jl	.L54
	vmovd	%r11d, %xmm3
	vpinsrd	$1, %ebx, %xmm3, %xmm0
	vmovq	%xmm0, 528(%rsp,%rbp,4)
	movl	%r9d, %ebx
	movl	%edi, %ebp
	jmp	.L31
.L54:
	vmovd	%r10d, %xmm4
	vpinsrd	$1, %r9d, %xmm4, %xmm0
	vmovq	%xmm0, 528(%rsp,%rbp,4)
	movl	%r11d, %r10d
	movl	%edi, %ebp
	leal	1(%r11), %r14d
	jmp	.L31
.L67:
	movq	2536(%rsp), %rax
	subq	%fs:40, %rax
	jne	.L70
	addq	$2552, %rsp
	.cfi_remember_state
	.cfi_def_cfa_offset 56
	popq	%rbx
	.cfi_def_cfa_offset 48
	popq	%rbp
	.cfi_def_cfa_offset 40
	popq	%r12
	.cfi_def_cfa_offset 32
	popq	%r13
	.cfi_def_cfa_offset 24
	popq	%r14
	.cfi_def_cfa_offset 16
	popq	%r15
	.cfi_def_cfa_offset 8
	ret
.L69:
	.cfi_restore_state
	movq	%rsp, %rbp
	leaq	.LC2(%rip), %rax
	movq	%rax, 8(%rsp)
	movq	%rbp, %rdi
	movabsq	$25769803904, %rax
	movq	%rax, (%rsp)
	movl	$8283, 16(%rsp)
	call	_gfortran_st_write@PLT
	movl	$24, %edx
	leaq	.LC12(%rip), %rsi
	movq	%rbp, %rdi
	call	_gfortran_transfer_character_write@PLT
	movq	%rbp, %rdi
	call	_gfortran_st_write_done@PLT
	xorl	%edx, %edx
	xorl	%esi, %esi
	xorl	%edi, %edi
	call	_gfortran_stop_string@PLT
.L70:
	call	__stack_chk_fail@PLT
	.cfi_endproc
.LFE2:
	.size	sort2_, .-sort2_
	.p2align 4
	.globl	sort_
	.type	sort_, @function
sort_:
.LFB3:
	.cfi_startproc
	pushq	%rbp
	.cfi_def_cfa_offset 16
	.cfi_offset 6, -16
	movq	%rsi, %rdx
	movl	$1, %r11d
	pushq	%rbx
	.cfi_def_cfa_offset 24
	.cfi_offset 3, -24
	xorl	%r10d, %r10d
	subq	$2552, %rsp
	.cfi_def_cfa_offset 2576
	movq	%fs:40, %rax
	movq	%rax, 2536(%rsp)
	xorl	%eax, %eax
	movl	(%rdi), %r9d
	.p2align 4,,10
	.p2align 3
.L72:
	movl	%r9d, %eax
	subl	%r11d, %eax
	cmpl	$6, %eax
	jg	.L73
.L107:
	movslq	%r11d, %rax
	leaq	(%rdx,%rax,8), %rsi
	cmpl	%r11d, %r9d
	jle	.L81
	.p2align 4,,10
	.p2align 3
.L82:
	vmovsd	(%rsi), %xmm1
	movslq	%r11d, %rax
	testl	%r11d, %r11d
	jg	.L80
	jmp	.L79
	.p2align 4,,10
	.p2align 3
.L105:
	vmovsd	%xmm0, (%rdx,%rax,8)
	decq	%rax
	testl	%eax, %eax
	jle	.L79
.L80:
	vmovsd	-8(%rdx,%rax,8), %xmm0
	movq	%rax, %rcx
	vcomisd	%xmm0, %xmm1
	jb	.L105
.L78:
	incl	%r11d
	vmovsd	%xmm1, (%rdx,%rcx,8)
	addq	$8, %rsi
	cmpl	%r11d, %r9d
	jne	.L82
.L81:
	testl	%r10d, %r10d
	je	.L106
	movslq	%r10d, %rax
	movl	524(%rsp,%rax,4), %r9d
	movl	520(%rsp,%rax,4), %r11d
	movl	%r9d, %eax
	subl	%r11d, %eax
	subl	$2, %r10d
	cmpl	$6, %eax
	jle	.L107
.L73:
	leal	(%r9,%r11), %ecx
	movl	%ecx, %eax
	shrl	$31, %eax
	addl	%ecx, %eax
	sarl	%eax
	movslq	%r11d, %rcx
	decl	%eax
	leaq	(%rdx,%rcx,8), %rbp
	vmovsd	0(%rbp), %xmm0
	cltq
	vmovsd	(%rdx,%rax,8), %xmm1
	vmovsd	%xmm0, (%rdx,%rax,8)
	movslq	%r9d, %rax
	decq	%rax
	vmovsd	%xmm1, 0(%rbp)
	vmovsd	(%rdx,%rax,8), %xmm0
	vcomisd	%xmm0, %xmm1
	jbe	.L84
	vmovsd	%xmm0, 0(%rbp)
	vmovsd	%xmm1, (%rdx,%rax,8)
	vmovsd	%xmm1, %xmm1, %xmm0
.L84:
	vmovsd	-8(%rbp), %xmm1
	decq	%rcx
	vcomisd	%xmm0, %xmm1
	jbe	.L86
	vmovsd	%xmm0, -8(%rbp)
	vmovsd	%xmm1, (%rdx,%rax,8)
	vmovsd	-8(%rbp), %xmm1
.L86:
	vmovsd	0(%rbp), %xmm0
	vcomisd	%xmm1, %xmm0
	jbe	.L88
	vunpcklpd	%xmm1, %xmm0, %xmm1
	vmovupd	%xmm1, (%rdx,%rcx,8)
	vmovsd	%xmm0, %xmm0, %xmm1
.L88:
	leal	2(%r11), %edi
	movslq	%edi, %rdi
	movl	%r9d, %ecx
	.p2align 4,,10
	.p2align 3
.L90:
	vmovsd	-8(%rdx,%rdi,8), %xmm2
	movl	%edi, %ebx
	vcomisd	%xmm2, %xmm1
	ja	.L91
	movslq	%ecx, %rax
	subq	$2, %rax
	.p2align 4,,10
	.p2align 3
.L92:
	movq	%rax, %rsi
	decq	%rax
	vmovsd	8(%rdx,%rax,8), %xmm0
	movl	%ecx, %r8d
	decl	%ecx
	vcomisd	%xmm1, %xmm0
	ja	.L92
	cmpl	%edi, %ecx
	jl	.L93
	vmovsd	%xmm0, -8(%rdx,%rdi,8)
	vmovsd	%xmm2, (%rdx,%rsi,8)
.L91:
	incq	%rdi
	jmp	.L90
	.p2align 4,,10
	.p2align 3
.L79:
	xorl	%ecx, %ecx
	jmp	.L78
	.p2align 4,,10
	.p2align 3
.L93:
	vmovsd	%xmm0, -8(%rbp)
	vmovsd	%xmm1, (%rdx,%rsi,8)
	leal	2(%r10), %esi
	cmpl	$500, %esi
	jg	.L108
	movl	%r9d, %eax
	subl	%ebx, %eax
	incl	%eax
	subl	%r11d, %ecx
	subl	$2, %r8d
	movslq	%r10d, %r10
	cmpl	%ecx, %eax
	jl	.L95
	vmovd	%ebx, %xmm3
	vpinsrd	$1, %r9d, %xmm3, %xmm0
	vmovq	%xmm0, 528(%rsp,%r10,4)
	movl	%r8d, %r9d
	movl	%esi, %r10d
	jmp	.L72
.L95:
	vmovd	%r11d, %xmm4
	vpinsrd	$1, %r8d, %xmm4, %xmm0
	vmovq	%xmm0, 528(%rsp,%r10,4)
	movl	%ebx, %r11d
	movl	%esi, %r10d
	jmp	.L72
.L106:
	movq	2536(%rsp), %rax
	subq	%fs:40, %rax
	jne	.L109
	addq	$2552, %rsp
	.cfi_remember_state
	.cfi_def_cfa_offset 24
	popq	%rbx
	.cfi_def_cfa_offset 16
	popq	%rbp
	.cfi_def_cfa_offset 8
	ret
.L108:
	.cfi_restore_state
	movq	%rsp, %rbp
	leaq	.LC2(%rip), %rax
	movq	%rax, 8(%rsp)
	movq	%rbp, %rdi
	movabsq	$25769803904, %rax
	movq	%rax, (%rsp)
	movl	$6251, 16(%rsp)
	call	_gfortran_st_write@PLT
	movl	$24, %edx
	leaq	.LC12(%rip), %rsi
	movq	%rbp, %rdi
	call	_gfortran_transfer_character_write@PLT
	movq	%rbp, %rdi
	call	_gfortran_st_write_done@PLT
	xorl	%edx, %edx
	xorl	%esi, %esi
	xorl	%edi, %edi
	call	_gfortran_stop_string@PLT
.L109:
	call	__stack_chk_fail@PLT
	.cfi_endproc
.LFE3:
	.size	sort_, .-sort_
	.p2align 4
	.globl	gyration_
	.type	gyration_, @function
gyration_:
.LFB5:
	.cfi_startproc
	movl	8+bas_(%rip), %ecx
	testl	%ecx, %ecx
	jle	.L121
	leal	-1(%rcx), %eax
	cmpl	$2, %eax
	jbe	.L122
	movl	%ecx, %r8d
	shrl	$2, %r8d
	vxorpd	%xmm9, %xmm9, %xmm9
	leaq	pos_(%rip), %rdx
	leaq	mass_(%rip), %r9
	salq	$5, %r8
	movq	%rdx, %rax
	movq	%r9, %rsi
	addq	%rdx, %r8
	vmovapd	%ymm9, %ymm8
	vmovapd	%ymm9, %ymm7
	vmovapd	%ymm9, %ymm6
	vmovapd	%ymm9, %ymm4
	vmovapd	%ymm9, %ymm5
	.p2align 4,,10
	.p2align 3
.L113:
	vmovapd	(%rsi), %ymm0
	vmovapd	(%rax), %ymm3
	vmovapd	80000(%rax), %ymm2
	vmovapd	160000(%rax), %ymm1
	addq	$32, %rax
	vfmadd231pd	%ymm0, %ymm3, %ymm7
	vfmadd231pd	%ymm0, %ymm2, %ymm8
	vfmadd231pd	%ymm0, %ymm1, %ymm9
	vaddpd	%ymm3, %ymm5, %ymm5
	vaddpd	%ymm2, %ymm4, %ymm4
	vaddpd	%ymm1, %ymm6, %ymm6
	addq	$32, %rsi
	cmpq	%r8, %rax
	jne	.L113
	vextractf128	$0x1, %ymm9, %xmm0
	vextractf128	$0x1, %ymm7, %xmm2
	vaddpd	%xmm9, %xmm0, %xmm9
	vaddpd	%xmm7, %xmm2, %xmm7
	vextractf128	$0x1, %ymm8, %xmm1
	vunpckhpd	%xmm9, %xmm9, %xmm0
	vunpckhpd	%xmm7, %xmm7, %xmm2
	vaddpd	%xmm7, %xmm2, %xmm7
	vextractf128	$0x1, %ymm5, %xmm3
	vaddpd	%xmm9, %xmm0, %xmm9
	vextractf128	$0x1, %ymm6, %xmm0
	vaddpd	%xmm8, %xmm1, %xmm8
	vaddpd	%xmm6, %xmm0, %xmm6
	vaddpd	%xmm5, %xmm3, %xmm5
	vmovsd	%xmm7, %xmm7, %xmm2
	vextractf128	$0x1, %ymm4, %xmm7
	vaddpd	%xmm4, %xmm7, %xmm4
	vunpckhpd	%xmm8, %xmm8, %xmm1
	vunpckhpd	%xmm6, %xmm6, %xmm0
	vunpckhpd	%xmm5, %xmm5, %xmm3
	vaddpd	%xmm8, %xmm1, %xmm8
	vaddpd	%xmm6, %xmm0, %xmm6
	vaddpd	%xmm5, %xmm3, %xmm5
	movl	%ecx, %esi
	vunpckhpd	%xmm4, %xmm4, %xmm7
	andl	$-4, %esi
	vaddpd	%xmm4, %xmm7, %xmm4
	vmovsd	%xmm8, %xmm8, %xmm1
	vmovsd	%xmm6, %xmm6, %xmm0
	vmovsd	%xmm5, %xmm5, %xmm3
	leal	1(%rsi), %eax
	cmpl	%esi, %ecx
	je	.L111
.L112:
	leal	-1(%rax), %esi
	movslq	%esi, %rsi
	vmovsd	(%r9,%rsi,8), %xmm5
	vmovsd	(%rdx,%rsi,8), %xmm8
	vmovsd	80000(%rdx,%rsi,8), %xmm7
	vmovsd	160000(%rdx,%rsi,8), %xmm6
	leal	1(%rax), %esi
	vfmadd231sd	%xmm5, %xmm8, %xmm2
	vfmadd231sd	%xmm5, %xmm7, %xmm1
	vfmadd231sd	%xmm5, %xmm6, %xmm9
	vaddsd	%xmm8, %xmm3, %xmm3
	vaddsd	%xmm7, %xmm4, %xmm4
	vaddsd	%xmm6, %xmm0, %xmm0
	cmpl	%esi, %ecx
	jl	.L111
	movslq	%eax, %r8
	vmovsd	(%r9,%r8,8), %xmm5
	vmovsd	(%rdx,%r8,8), %xmm8
	vmovsd	80000(%rdx,%r8,8), %xmm7
	vmovsd	160000(%rdx,%r8,8), %xmm6
	addl	$2, %eax
	vfmadd231sd	%xmm5, %xmm8, %xmm2
	vfmadd231sd	%xmm5, %xmm7, %xmm1
	vfmadd231sd	%xmm5, %xmm6, %xmm9
	vaddsd	%xmm8, %xmm3, %xmm3
	vaddsd	%xmm7, %xmm4, %xmm4
	vaddsd	%xmm6, %xmm0, %xmm0
	cmpl	%eax, %ecx
	jl	.L111
	movslq	%esi, %rax
	vmovsd	(%r9,%rax,8), %xmm5
	vmovsd	(%rdx,%rax,8), %xmm8
	vmovsd	80000(%rdx,%rax,8), %xmm7
	vmovsd	160000(%rdx,%rax,8), %xmm6
	vfmadd231sd	%xmm5, %xmm8, %xmm2
	vfmadd231sd	%xmm5, %xmm7, %xmm1
	vfmadd231sd	%xmm5, %xmm6, %xmm9
	vaddsd	%xmm8, %xmm3, %xmm3
	vaddsd	%xmm7, %xmm4, %xmm4
	vaddsd	%xmm6, %xmm0, %xmm0
.L111:
	vxorps	%xmm5, %xmm5, %xmm5
	vcvtsi2sdl	%ecx, %xmm5, %xmm5
	vmovsd	.LC8(%rip), %xmm6
	movq	$0x000000000, (%rdi)
	vdivsd	%xmm5, %xmm6, %xmm5
	vmulsd	%xmm3, %xmm5, %xmm8
	vmulsd	%xmm4, %xmm5, %xmm7
	vmulsd	%xmm0, %xmm5, %xmm6
	vfmsub213sd	48+plates_(%rip), %xmm5, %xmm2
	vfmsub213sd	64+plates_(%rip), %xmm5, %xmm1
	vfmsub213sd	plates_(%rip), %xmm5, %xmm9
	vmovsd	%xmm8, masscenter_(%rip)
	vmovsd	%xmm7, 8+masscenter_(%rip)
	vmovsd	%xmm6, 16+masscenter_(%rip)
	vmovsd	%xmm2, 24+masscenter_(%rip)
	vmovsd	%xmm1, 32+masscenter_(%rip)
	vmovsd	%xmm9, 40+masscenter_(%rip)
	testl	%ecx, %ecx
	jle	.L123
	leal	-1(%rcx), %eax
	cmpl	$2, %eax
	jbe	.L124
	movl	%ecx, %edx
	shrl	$2, %edx
	leaq	160000+pos_(%rip), %rax
	salq	$5, %rdx
	vbroadcastsd	%xmm8, %ymm10
	vbroadcastsd	%xmm7, %ymm9
	vbroadcastsd	%xmm6, %ymm4
	addq	%rax, %rdx
	vxorpd	%xmm1, %xmm1, %xmm1
	.p2align 4,,10
	.p2align 3
.L117:
	vmovapd	-80000(%rax), %ymm3
	vmovapd	-160000(%rax), %ymm2
	vsubpd	%ymm9, %ymm3, %ymm3
	vmovapd	(%rax), %ymm0
	vsubpd	%ymm10, %ymm2, %ymm2
	vmulpd	%ymm3, %ymm3, %ymm3
	vsubpd	%ymm4, %ymm0, %ymm0
	addq	$32, %rax
	vfmadd132pd	%ymm0, %ymm1, %ymm0
	vfmadd132pd	%ymm2, %ymm3, %ymm2
	vaddpd	%ymm2, %ymm0, %ymm1
	cmpq	%rax, %rdx
	jne	.L117
	vextractf128	$0x1, %ymm1, %xmm0
	vaddpd	%xmm1, %xmm0, %xmm1
	movl	%ecx, %esi
	andl	$-4, %esi
	vunpckhpd	%xmm1, %xmm1, %xmm0
	vaddpd	%xmm1, %xmm0, %xmm1
	leal	1(%rsi), %eax
	cmpl	%ecx, %esi
	je	.L115
.L116:
	subl	%esi, %ecx
	leaq	pos_(%rip), %rdx
	cmpl	$1, %ecx
	je	.L119
	movl	%esi, %r8d
	leaq	pos_(%rip), %rdx
	vmovapd	(%rdx,%r8,8), %xmm2
	leal	10000(%rsi), %r8d
	vmovapd	(%rdx,%r8,8), %xmm0
	vmovddup	%xmm7, %xmm4
	vsubpd	%xmm4, %xmm0, %xmm4
	vmovddup	%xmm8, %xmm3
	vsubpd	%xmm3, %xmm2, %xmm3
	vmulpd	%xmm4, %xmm4, %xmm4
	addl	$20000, %esi
	vmovapd	(%rdx,%rsi,8), %xmm2
	vmovddup	%xmm6, %xmm0
	vsubpd	%xmm0, %xmm2, %xmm0
	vfmadd132pd	%xmm3, %xmm4, %xmm3
	movl	%ecx, %esi
	andl	$-2, %esi
	addl	%esi, %eax
	vfmadd132pd	%xmm0, %xmm3, %xmm0
	vunpckhpd	%xmm0, %xmm0, %xmm2
	vaddpd	%xmm0, %xmm2, %xmm0
	vaddsd	%xmm0, %xmm1, %xmm1
	cmpl	%ecx, %esi
	je	.L115
.L119:
	decl	%eax
	cltq
	vmovsd	80000(%rdx,%rax,8), %xmm4
	vmovsd	(%rdx,%rax,8), %xmm3
	vsubsd	%xmm7, %xmm4, %xmm4
	vmovsd	160000(%rdx,%rax,8), %xmm0
	vsubsd	%xmm8, %xmm3, %xmm3
	vmulsd	%xmm4, %xmm4, %xmm4
	vsubsd	%xmm6, %xmm0, %xmm0
	vfmadd132sd	%xmm0, %xmm1, %xmm0
	vfmadd132sd	%xmm3, %xmm4, %xmm3
	vaddsd	%xmm0, %xmm3, %xmm1
.L115:
	vmulsd	%xmm1, %xmm5, %xmm0
	vsqrtsd	%xmm0, %xmm0, %xmm0
	vmovsd	%xmm0, (%rdi)
	vzeroupper
	ret
	.p2align 4,,10
	.p2align 3
.L121:
	vxorpd	%xmm9, %xmm9, %xmm9
	vmovsd	%xmm9, %xmm9, %xmm1
	vmovsd	%xmm9, %xmm9, %xmm2
	vmovsd	%xmm9, %xmm9, %xmm0
	vmovsd	%xmm9, %xmm9, %xmm4
	vmovsd	%xmm9, %xmm9, %xmm3
	jmp	.L111
	.p2align 4,,10
	.p2align 3
.L123:
	vxorpd	%xmm1, %xmm1, %xmm1
	vmulsd	%xmm1, %xmm5, %xmm0
	vsqrtsd	%xmm0, %xmm0, %xmm0
	vmovsd	%xmm0, (%rdi)
	vzeroupper
	ret
.L122:
	vxorpd	%xmm9, %xmm9, %xmm9
	vmovsd	%xmm9, %xmm9, %xmm1
	vmovsd	%xmm9, %xmm9, %xmm2
	vmovsd	%xmm9, %xmm9, %xmm0
	vmovsd	%xmm9, %xmm9, %xmm4
	vmovsd	%xmm9, %xmm9, %xmm3
	movl	$1, %eax
	leaq	pos_(%rip), %rdx
	leaq	mass_(%rip), %r9
	jmp	.L112
.L124:
	xorl	%esi, %esi
	vxorpd	%xmm1, %xmm1, %xmm1
	movl	$1, %eax
	jmp	.L116
	.cfi_endproc
.LFE5:
	.size	gyration_, .-gyration_
	.section	.rodata.str1.8,"aMS",@progbits,1
	.align 8
.LC13:
	.string	"(/,2a,f10.1,2x,a,f12.2,2x,a,3f9.3)"
	.section	.rodata.str1.1
.LC14:
	.string	"REMARK   0 "
.LC15:
	.string	"SHIFT ="
	.section	.rodata.str1.8
	.align 8
.LC16:
	.string	"(/,a,f10.1,2x,a,f12.2,2x,a,f9.4)"
	.section	.rodata.str1.1
.LC17:
	.string	"REMARK   0 TIME ="
.LC18:
	.string	"(a,3f9.3,3f7.2,x,a,11x,a)"
.LC19:
	.string	"CRYST1"
	.section	.rodata
	.align 4
.LC20:
	.long	1119092736
	.section	.rodata.str1.1
.LC21:
	.string	"P 1"
.LC22:
	.string	"1"
.LC27:
	.string	"(a,a)"
.LC28:
	.string	" "
.LC29:
	.string	"(i2)"
	.section	.rodata.str1.8
	.align 8
.LC30:
	.string	"(a,i7,2x,a,a,a,i4,f12.2,2f8.2,f6.2)"
	.section	.rodata.str1.1
.LC31:
	.string	"ATOM"
.LC32:
	.string	"CA  "
	.section	.rodata.str1.8
	.align 8
.LC33:
	.string	"(a,i7,2x,a,a,a,i4,f12.3,2f8.3,f6.2)"
	.section	.rodata.str1.1
.LC34:
	.string	"(a,i7,6x,a,a,i6,28x)"
.LC35:
	.string	"TER "
.LC36:
	.string	"(a,i5,2x,3a,i4,f12.2,2f8.2)"
.LC37:
	.string	"HETATM"
.LC38:
	.string	"C   "
.LC39:
	.string	"COG"
.LC40:
	.string	"(a,i5,2x,3a,i4,f12.3,2f8.3)"
	.section	.rodata.str1.8
	.align 8
.LC41:
	.string	"(a,i4,a,f10.1,a,f8.2,a,f7.2,a,i4,a,i3,a,i3,a,f6.3)"
	.section	.rodata.str1.1
.LC42:
	.string	"REMARK"
.LC43:
	.string	" T= "
.LC44:
	.string	" RG= "
.LC45:
	.string	" R_end_to_end= "
.LC46:
	.string	" N= "
.LC47:
	.string	" K1= "
.LC48:
	.string	" K2= "
.LC49:
	.string	" W= "
.LC50:
	.string	"(a,i4,2a,i5,2a,i5)"
.LC51:
	.string	"SSBOND"
.LC52:
	.string	" CYS"
.LC53:
	.string	"    CYS"
.LC54:
	.string	"(a,2i5)"
.LC55:
	.string	"CONECT"
.LC56:
	.string	"(a)"
.LC57:
	.string	"END"
	.text
	.p2align 4
	.globl	print_conformation_
	.type	print_conformation_, @function
print_conformation_:
.LFB6:
	.cfi_startproc
	pushq	%rbp
	.cfi_def_cfa_offset 16
	.cfi_offset 6, -16
	movq	%rsp, %rbp
	.cfi_def_cfa_register 6
	pushq	%r15
	pushq	%r14
	pushq	%r13
	pushq	%r12
	.cfi_offset 15, -24
	.cfi_offset 14, -32
	.cfi_offset 13, -40
	.cfi_offset 12, -48
	movq	%rdx, %r12
	pushq	%rbx
	.cfi_offset 3, -56
	movq	%rcx, %rbx
	andq	$-32, %rsp
	subq	$60800, %rsp
	movq	%rdi, 144(%rsp)
	movq	%rsi, 24(%rsp)
	movl	60+wal_(%rip), %r8d
	movq	%fs:40, %rax
	movq	%rax, 60792(%rsp)
	xorl	%eax, %eax
	testl	%r8d, %r8d
	je	.L131
	vmovsd	48+plates_(%rip), %xmm4
	vmovsd	40+plates_(%rip), %xmm0
	vmovsd	bas_(%rip), %xmm1
	vsubsd	%xmm4, %xmm0, %xmm0
	vmovsd	64+plates_(%rip), %xmm3
	vmovsd	plates_(%rip), %xmm2
	vmulsd	%xmm1, %xmm0, %xmm0
	vmovsd	%xmm4, 208(%rsp)
	vmovsd	%xmm3, 224(%rsp)
	vmovsd	%xmm2, 240(%rsp)
	vmovsd	%xmm0, 200(%rsp)
	vmovsd	56+plates_(%rip), %xmm0
	vsubsd	%xmm3, %xmm0, %xmm0
	vmulsd	%xmm1, %xmm0, %xmm0
	vmovsd	%xmm0, 216(%rsp)
	vmovsd	8+plates_(%rip), %xmm0
	vsubsd	%xmm2, %xmm0, %xmm0
	vmulsd	%xmm1, %xmm0, %xmm0
	vmovsd	%xmm0, 232(%rsp)
.L132:
	movq	144(%rsp), %rax
	movl	80016+neigh_(%rip), %edi
	movl	(%rax), %eax
	testl	%edi, %edi
	je	.L136
	leaq	.LC2(%rip), %rbx
	movq	%rbx, 168(%rsp)
	movq	%rbx, 20792(%rsp)
	movl	%eax, 20788(%rsp)
	leaq	.LC13(%rip), %rbx
	leaq	20784(%rsp), %rax
	movq	%rax, %rdi
	movq	%rbx, 20864(%rsp)
	movq	%rax, %rbx
	movq	%rax, 80(%rsp)
	movl	$6515, 20800(%rsp)
	movq	$34, 20872(%rsp)
	movl	$4096, 20784(%rsp)
	call	_gfortran_st_write@PLT
	movl	$11, %edx
	leaq	.LC14(%rip), %rsi
	movq	%rbx, %rdi
	call	_gfortran_transfer_character_write@PLT
	movl	$6, %edx
	leaq	.LC4(%rip), %rsi
	movq	%rbx, %rdi
	call	_gfortran_transfer_character_write@PLT
	movq	24(%rsp), %rsi
	movl	$8, %edx
	movq	%rbx, %rdi
	call	_gfortran_transfer_real_write@PLT
	movl	$8, %edx
	leaq	.LC5(%rip), %rsi
	movq	%rbx, %rdi
	call	_gfortran_transfer_character_write@PLT
	movl	$8, %edx
	movq	%r12, %rsi
	movq	%rbx, %rdi
	call	_gfortran_transfer_real_write@PLT
	movl	$7, %edx
	leaq	.LC15(%rip), %rsi
	movq	%rbx, %rdi
	call	_gfortran_transfer_character_write@PLT
	leaq	208(%rsp), %rsi
	movl	$8, %edx
	movq	%rbx, %rdi
	call	_gfortran_transfer_real_write@PLT
	leaq	224(%rsp), %rsi
	movl	$8, %edx
	movq	%rbx, %rdi
	call	_gfortran_transfer_real_write@PLT
	leaq	240(%rsp), %rsi
	movl	$8, %edx
	movq	%rbx, %rdi
	call	_gfortran_transfer_real_write@PLT
	movq	%rbx, %rdi
	call	_gfortran_st_write_done@PLT
	movl	60+wal_(%rip), %esi
	testl	%esi, %esi
	jne	.L184
.L138:
	vmovsd	.LC23(%rip), %xmm0
	movl	8+bas_(%rip), %eax
	vdivsd	bas_(%rip), %xmm0, %xmm0
	vxorpd	.LC11(%rip), %xmm0, %xmm6
	movl	$1, 196(%rsp)
	movl	$0, 192(%rsp)
	movl	%eax, 136(%rsp)
	vmovsd	%xmm6, 96(%rsp)
	testl	%eax, %eax
	jle	.L139
	leaq	80000+sequence_(%rip), %rax
	movq	%rax, 120(%rsp)
	subq	$80000, %rax
	movq	%rax, 152(%rsp)
	leaq	784(%rsp), %rax
	movq	%rax, 72(%rsp)
	leaq	192(%rsp), %rax
	movq	%rax, 104(%rsp)
	leaq	60789(%rsp), %rax
	vmovsd	208(%rsp), %xmm3
	vmovsd	224(%rsp), %xmm6
	vmovsd	240(%rsp), %xmm2
	movl	$1, 184(%rsp)
	movl	$0, 140(%rsp)
	movq	%rax, 64(%rsp)
	vmovsd	%xmm3, 160(%rsp)
	vmovsd	%xmm6, 128(%rsp)
	vmovsd	%xmm2, 112(%rsp)
	leaq	pos_(%rip), %r13
	xorl	%r14d, %r14d
	leaq	248(%rsp), %r15
	leaq	256(%rsp), %r12
	.p2align 4,,10
	.p2align 3
.L160:
	movq	120(%rsp), %rbx
	movzwl	(%rbx), %eax
	movw	%ax, 60789(%rsp)
	movzbl	2(%rbx), %eax
	movb	%al, 60791(%rsp)
	movl	140(%rsp), %eax
	leal	1(%rax), %ebx
	movl	184(%rsp), %eax
	movl	%ebx, 192(%rsp)
	cmpl	$153, %eax
	jle	.L140
	leal	-154(%rax), %edx
	movl	$3593175255, %ecx
	movq	%rdx, %rax
	imulq	%rcx, %rdx
	shrq	$39, %rdx
	incl	%edx
	cmpl	$1223, %eax
	jbe	.L167
	vpbroadcastd	184(%rsp), %ymm1
	movl	%edx, %ecx
	vpaddd	.LC24(%rip), %ymm1, %ymm1
	shrl	$3, %ecx
	xorl	%eax, %eax
	.p2align 4,,10
	.p2align 3
.L142:
	vmovdqa	%ymm1, %ymm0
	incl	%eax
	vpaddd	.LC25(%rip), %ymm1, %ymm1
	vpaddd	.LC26(%rip), %ymm0, %ymm0
	cmpl	%eax, %ecx
	jne	.L142
	movl	%edx, %esi
	andl	$-8, %esi
	imull	$-153, %esi, %ecx
	vextracti128	$0x1, %ymm0, %xmm0
	vpextrd	$3, %xmm0, %eax
	addl	184(%rsp), %ecx
	cmpl	%edx, %esi
	je	.L185
	vzeroupper
.L141:
	leal	-153(%rcx), %eax
	cmpl	$153, %eax
	jle	.L140
	leal	-306(%rcx), %eax
	cmpl	$153, %eax
	jle	.L140
	leal	-459(%rcx), %eax
	cmpl	$153, %eax
	jle	.L140
	leal	-612(%rcx), %eax
	cmpl	$153, %eax
	jle	.L140
	leal	-765(%rcx), %eax
	cmpl	$153, %eax
	jle	.L140
	leal	-918(%rcx), %eax
	cmpl	$153, %eax
	jle	.L140
	leal	-1071(%rcx), %eax
	subl	$1224, %ecx
	cmpl	$153, %eax
	cmovg	%ecx, %eax
.L140:
	movq	72(%rsp), %rcx
	leaq	(%rcx,%r14,2), %rcx
	movq	%rcx, 176(%rsp)
	cmpl	$26, %eax
	jg	.L144
	addl	$64, %eax
.L145:
	movl	%eax, 88(%rsp)
	movq	168(%rsp), %rax
	movq	%r12, %rdi
	movq	%rax, 264(%rsp)
	movq	176(%rsp), %rax
	movl	$6548, 272(%rsp)
	movq	%rax, 368(%rsp)
	leaq	.LC27(%rip), %rax
	movq	%rax, 336(%rsp)
	movabsq	$-4294946816, %rax
	movq	%rax, 256(%rsp)
	movq	$2, 376(%rsp)
	movq	$0, 328(%rsp)
	movq	$5, 344(%rsp)
	call	_gfortran_st_write@PLT
	movl	$1, %edx
	leaq	.LC28(%rip), %rsi
	movq	%r12, %rdi
	call	_gfortran_transfer_character_write@PLT
	movl	88(%rsp), %eax
	movq	%r12, %rdi
	movl	$1, %edx
	movq	%r15, %rsi
	movb	%al, 248(%rsp)
	call	_gfortran_transfer_character_write@PLT
	movq	%r12, %rdi
	call	_gfortran_st_write_done@PLT
.L148:
	vmovsd	0(%r13), %xmm0
	vmovsd	96(%rsp), %xmm5
	vsubsd	160(%rsp), %xmm0, %xmm0
	movq	80(%rsp), %rax
	vcomisd	%xmm0, %xmm5
	movl	%ebx, (%rax,%r14,4)
	movq	144(%rsp), %rax
	movl	(%rax), %eax
	ja	.L149
	vmovsd	80000(%r13), %xmm0
	vsubsd	128(%rsp), %xmm0, %xmm0
	vcomisd	%xmm0, %xmm5
	ja	.L149
	vmovsd	160000(%r13), %xmm0
	vsubsd	112(%rsp), %xmm0, %xmm0
	vcomisd	%xmm0, %xmm5
	jbe	.L174
.L149:
	movq	168(%rsp), %rcx
	movl	$6557, 272(%rsp)
	movq	%rcx, 264(%rsp)
	leaq	.LC30(%rip), %rcx
.L182:
	movq	%r12, %rdi
	movq	%rcx, 336(%rsp)
	movl	%eax, 260(%rsp)
	movq	$35, 344(%rsp)
	movl	$4096, 256(%rsp)
	call	_gfortran_st_write@PLT
	movl	$4, %edx
	leaq	.LC31(%rip), %rsi
	movq	%r12, %rdi
	call	_gfortran_transfer_character_write@PLT
	movq	104(%rsp), %rsi
	movl	$4, %edx
	movq	%r12, %rdi
	call	_gfortran_transfer_integer_write@PLT
	movl	$4, %edx
	leaq	.LC32(%rip), %rsi
	movq	%r12, %rdi
	call	_gfortran_transfer_character_write@PLT
	movq	64(%rsp), %rsi
	movl	$3, %edx
	movq	%r12, %rdi
	call	_gfortran_transfer_character_write@PLT
	movq	176(%rsp), %rsi
	movl	$2, %edx
	movq	%r12, %rdi
	call	_gfortran_transfer_character_write@PLT
	movq	152(%rsp), %rsi
	movl	$4, %edx
	movq	%r12, %rdi
	call	_gfortran_transfer_integer_write@PLT
	vmovsd	0(%r13), %xmm0
	leaq	bas_(%rip), %rax
	vsubsd	160(%rsp), %xmm0, %xmm0
	movl	$8, %edx
	movq	%r15, %rsi
	vmulsd	(%rax), %xmm0, %xmm0
	movq	%r12, %rdi
	vmovsd	%xmm0, 248(%rsp)
	call	_gfortran_transfer_real_write@PLT
	vmovsd	80000(%r13), %xmm0
	leaq	bas_(%rip), %rax
	vsubsd	128(%rsp), %xmm0, %xmm0
	movl	$8, %edx
	movq	%r15, %rsi
	vmulsd	(%rax), %xmm0, %xmm0
	movq	%r12, %rdi
	vmovsd	%xmm0, 248(%rsp)
	call	_gfortran_transfer_real_write@PLT
	vmovsd	160000(%r13), %xmm0
	leaq	bas_(%rip), %rax
	vsubsd	112(%rsp), %xmm0, %xmm0
	movl	$8, %edx
	movq	%r15, %rsi
	vmulsd	(%rax), %xmm0, %xmm0
	movq	%r12, %rdi
	vmovsd	%xmm0, 248(%rsp)
	call	_gfortran_transfer_real_write@PLT
	leaq	neigh_(%rip), %rax
	vxorps	%xmm2, %xmm2, %xmm2
	vcvtsi2ssl	(%rax,%r14,8), %xmm2, %xmm0
	movl	$4, %edx
	movq	%r15, %rsi
	movq	%r12, %rdi
	vmovss	%xmm0, 248(%rsp)
	call	_gfortran_transfer_real_write@PLT
	movq	%r12, %rdi
	call	_gfortran_st_write_done@PLT
	leaq	80000+bon_(%rip), %rax
	movl	(%rax,%r14,4), %ecx
	testl	%ecx, %ecx
	je	.L186
	movl	%ebx, 140(%rsp)
.L153:
	incq	%r14
	leal	1(%r14), %eax
	addq	$3, 120(%rsp)
	addq	$4, 152(%rsp)
	addq	$8, %r13
	cmpl	%eax, 136(%rsp)
	jge	.L160
	movq	144(%rsp), %rbx
	movl	8+bas_(%rip), %eax
	movl	$0, 248(%rsp)
	movl	(%rbx), %esi
	testl	%eax, %eax
	jle	.L161
	leaq	40000+ssb_(%rip), %r13
	xorl	%r14d, %r14d
	leaq	-40000(%r13), %rbx
	jmp	.L163
	.p2align 4,,10
	.p2align 3
.L162:
	incq	%r14
	leal	1(%r14), %edx
	cmpl	%eax, %edx
	jg	.L161
.L163:
	movl	0(%r13,%r14,4), %edx
	testl	%edx, %edx
	je	.L162
	movl	(%rbx,%r14,4), %r8d
	leal	1(%r14), %edx
	cmpl	%edx, %r8d
	jle	.L162
	movl	%eax, 160(%rsp)
	movq	168(%rsp), %rax
	leaq	.LC50(%rip), %rcx
	movq	%r12, %rdi
	movq	%rax, 264(%rsp)
	movl	%r8d, 184(%rsp)
	movq	%rcx, 336(%rsp)
	movl	%esi, 260(%rsp)
	incl	248(%rsp)
	movl	$6594, 272(%rsp)
	movq	$18, 344(%rsp)
	movl	$4096, 256(%rsp)
	call	_gfortran_st_write@PLT
	movl	$6, %edx
	leaq	.LC51(%rip), %rsi
	movq	%r12, %rdi
	call	_gfortran_transfer_character_write@PLT
	movl	$4, %edx
	movq	%r15, %rsi
	movq	%r12, %rdi
	call	_gfortran_transfer_integer_write@PLT
	movl	$4, %edx
	leaq	.LC52(%rip), %rsi
	movq	%r12, %rdi
	call	_gfortran_transfer_character_write@PLT
	movq	72(%rsp), %rcx
	movl	$2, %edx
	leaq	(%rcx,%r14,2), %rsi
	movq	%r12, %rdi
	call	_gfortran_transfer_character_write@PLT
	leaq	0(,%r14,4), %r9
	leaq	sequence_(%rip), %rdi
	leaq	(%rdi,%r9), %rsi
	movl	$4, %edx
	movq	%r12, %rdi
	movq	%r9, 176(%rsp)
	call	_gfortran_transfer_integer_write@PLT
	movl	$7, %edx
	leaq	.LC53(%rip), %rsi
	movq	%r12, %rdi
	call	_gfortran_transfer_character_write@PLT
	movl	184(%rsp), %r8d
	movq	72(%rsp), %rcx
	decl	%r8d
	movslq	%r8d, %r8
	leaq	(%rcx,%r8,2), %rsi
	movl	$2, %edx
	movq	%r12, %rdi
	movq	%r8, 184(%rsp)
	call	_gfortran_transfer_character_write@PLT
	movq	184(%rsp), %r8
	leaq	sequence_(%rip), %rdi
	salq	$2, %r8
	leaq	(%rdi,%r8), %rsi
	movl	$4, %edx
	movq	%r12, %rdi
	movq	%r8, 184(%rsp)
	call	_gfortran_transfer_integer_write@PLT
	movq	%r12, %rdi
	call	_gfortran_st_write_done@PLT
	movq	168(%rsp), %rax
	movq	%r12, %rdi
	movq	%rax, 264(%rsp)
	leaq	.LC54(%rip), %rax
	movq	%rax, 336(%rsp)
	movq	144(%rsp), %rax
	movl	$6595, 272(%rsp)
	movl	(%rax), %edx
	movq	$7, 344(%rsp)
	movl	%edx, 260(%rsp)
	movl	$4096, 256(%rsp)
	call	_gfortran_st_write@PLT
	movl	$6, %edx
	leaq	.LC55(%rip), %rsi
	movq	%r12, %rdi
	call	_gfortran_transfer_character_write@PLT
	movq	176(%rsp), %r9
	movq	80(%rsp), %rcx
	movl	$4, %edx
	leaq	(%rcx,%r9), %rsi
	movq	%r12, %rdi
	call	_gfortran_transfer_integer_write@PLT
	movq	80(%rsp), %rcx
	movq	184(%rsp), %r8
	movl	$4, %edx
	leaq	(%rcx,%r8), %rsi
	movq	%r12, %rdi
	call	_gfortran_transfer_integer_write@PLT
	movq	%r12, %rdi
	call	_gfortran_st_write_done@PLT
	movq	144(%rsp), %rax
	incq	%r14
	movl	(%rax), %esi
	movl	160(%rsp), %eax
	leal	1(%r14), %edx
	cmpl	%eax, %edx
	jle	.L163
	.p2align 4,,10
	.p2align 3
.L161:
	movq	168(%rsp), %rax
	movq	%r12, %rdi
	movq	%rax, 264(%rsp)
	leaq	.LC56(%rip), %rax
	movq	%rax, 336(%rsp)
	movl	%esi, 260(%rsp)
	movl	$6598, 272(%rsp)
	movq	$3, 344(%rsp)
	movl	$4096, 256(%rsp)
	call	_gfortran_st_write@PLT
	movq	%r12, %rdi
	movl	$3, %edx
	leaq	.LC57(%rip), %rsi
	call	_gfortran_transfer_character_write@PLT
	movq	%r12, %rdi
	call	_gfortran_st_write_done@PLT
	movq	60792(%rsp), %rax
	subq	%fs:40, %rax
	jne	.L187
	leaq	-40(%rbp), %rsp
	popq	%rbx
	popq	%r12
	popq	%r13
	popq	%r14
	popq	%r15
	popq	%rbp
	.cfi_remember_state
	.cfi_def_cfa 7, 8
	ret
	.p2align 4,,10
	.p2align 3
.L144:
	.cfi_restore_state
	cmpl	$52, %eax
	jg	.L146
	addl	$70, %eax
	jmp	.L145
	.p2align 4,,10
	.p2align 3
.L146:
	cmpl	$62, %eax
	jle	.L188
	movl	%eax, 88(%rsp)
	movq	168(%rsp), %rax
	movq	%r12, %rdi
	movq	%rax, 264(%rsp)
	movq	176(%rsp), %rax
	movl	$6550, 272(%rsp)
	movq	%rax, 368(%rsp)
	leaq	.LC29(%rip), %rax
	movq	%rax, 336(%rsp)
	movabsq	$-4294946816, %rax
	movq	%rax, 256(%rsp)
	movq	$2, 376(%rsp)
	movq	$0, 328(%rsp)
	movq	$4, 344(%rsp)
	call	_gfortran_st_write@PLT
	movl	88(%rsp), %eax
	movq	%r12, %rdi
	subl	$53, %eax
	movl	$4, %edx
	movq	%r15, %rsi
	movl	%eax, 248(%rsp)
	call	_gfortran_transfer_integer_write@PLT
	movq	%r12, %rdi
	call	_gfortran_st_write_done@PLT
	jmp	.L148
	.p2align 4,,10
	.p2align 3
.L186:
	movl	140(%rsp), %ebx
	movq	%r12, %rdi
	leal	2(%rbx), %eax
	movl	%eax, 192(%rsp)
	movq	168(%rsp), %rax
	movl	$6566, 272(%rsp)
	movq	%rax, 264(%rsp)
	leaq	.LC34(%rip), %rax
	movq	%rax, 336(%rsp)
	movq	144(%rsp), %rax
	movq	$20, 344(%rsp)
	movl	(%rax), %eax
	movl	$4096, 256(%rsp)
	movl	%eax, 260(%rsp)
	call	_gfortran_st_write@PLT
	movl	$4, %edx
	leaq	.LC35(%rip), %rsi
	movq	%r12, %rdi
	call	_gfortran_transfer_character_write@PLT
	movq	104(%rsp), %rsi
	movl	$4, %edx
	movq	%r12, %rdi
	call	_gfortran_transfer_integer_write@PLT
	movq	64(%rsp), %rsi
	movl	$3, %edx
	movq	%r12, %rdi
	call	_gfortran_transfer_character_write@PLT
	movq	176(%rsp), %rsi
	movl	$2, %edx
	movq	%r12, %rdi
	call	_gfortran_transfer_character_write@PLT
	movq	152(%rsp), %rsi
	movl	$4, %edx
	movq	%r12, %rdi
	call	_gfortran_transfer_integer_write@PLT
	addl	$3, %ebx
	movq	%r12, %rdi
	call	_gfortran_st_write_done@PLT
	movl	%ebx, 140(%rsp)
	movl	%ebx, 192(%rsp)
	movslq	184(%rsp), %rbx
	vmovsd	96(%rsp), %xmm4
	movq	%rbx, %rax
	decl	%eax
	cltq
	leaq	(%rax,%rax,2), %rdx
	movq	%rbx, 56(%rsp)
	leaq	20000(%rdx), %r9
	leaq	gyr_(%rip), %rbx
	vmovsd	(%rbx,%r9,8), %xmm0
	movq	%rax, 88(%rsp)
	vsubsd	160(%rsp), %xmm0, %xmm0
	leaq	1(%rdx), %rcx
	leaq	2(%rdx), %rax
	vcomisd	%xmm0, %xmm4
	ja	.L189
	leaq	20001(%rdx), %r10
	vmovsd	(%rbx,%r10,8), %xmm0
	movq	144(%rsp), %rdi
	vsubsd	128(%rsp), %xmm0, %xmm0
	movl	(%rdi), %esi
	vcomisd	%xmm0, %xmm4
	ja	.L156
	leaq	20002(%rdx), %r8
	vmovsd	(%rbx,%r8,8), %xmm0
	vsubsd	112(%rsp), %xmm0, %xmm0
	vcomisd	%xmm0, %xmm4
	jbe	.L176
.L156:
	movq	%rax, 40(%rsp)
	movq	168(%rsp), %rax
	movq	%r12, %rdi
	movq	%rax, 264(%rsp)
	leaq	.LC36(%rip), %rax
	movq	%rcx, 48(%rsp)
	movq	%r9, 32(%rsp)
	movq	%rax, 336(%rsp)
	movl	%esi, 260(%rsp)
	movl	$6572, 272(%rsp)
	movq	$27, 344(%rsp)
	movl	$4096, 256(%rsp)
	call	_gfortran_st_write@PLT
	movl	$6, %edx
	leaq	.LC37(%rip), %rsi
	movq	%r12, %rdi
	call	_gfortran_transfer_character_write@PLT
	movq	104(%rsp), %rsi
	movl	$4, %edx
	movq	%r12, %rdi
	call	_gfortran_transfer_integer_write@PLT
	movl	$4, %edx
	leaq	.LC38(%rip), %rsi
	movq	%r12, %rdi
	call	_gfortran_transfer_character_write@PLT
	movl	$3, %edx
	leaq	.LC39(%rip), %rsi
	movq	%r12, %rdi
	call	_gfortran_transfer_character_write@PLT
	movq	176(%rsp), %rsi
	movl	$2, %edx
	movq	%r12, %rdi
	call	_gfortran_transfer_character_write@PLT
	movq	152(%rsp), %rax
	movq	%r15, %rsi
	movl	(%rax), %eax
	movq	%r12, %rdi
	leal	1(%rax), %edx
	movl	%edx, 248(%rsp)
	movl	$4, %edx
	movl	%eax, 176(%rsp)
	call	_gfortran_transfer_integer_write@PLT
	movq	32(%rsp), %r9
	leaq	bas_(%rip), %rax
	vmovsd	(%rbx,%r9,8), %xmm0
	movl	$8, %edx
	vsubsd	160(%rsp), %xmm0, %xmm0
	movq	%r15, %rsi
	movq	%r12, %rdi
	vmulsd	(%rax), %xmm0, %xmm0
	vmovsd	%xmm0, 248(%rsp)
	call	_gfortran_transfer_real_write@PLT
	movq	48(%rsp), %rcx
	leaq	bas_(%rip), %rax
	vmovsd	160000(%rbx,%rcx,8), %xmm0
	movl	$8, %edx
	vsubsd	128(%rsp), %xmm0, %xmm0
	movq	%r15, %rsi
	movq	%r12, %rdi
	vmulsd	(%rax), %xmm0, %xmm0
	vmovsd	%xmm0, 248(%rsp)
	call	_gfortran_transfer_real_write@PLT
	movq	40(%rsp), %rax
	vmovsd	160000(%rbx,%rax,8), %xmm0
.L183:
	vsubsd	112(%rsp), %xmm0, %xmm0
	leaq	bas_(%rip), %rax
	movl	$8, %edx
	vmulsd	(%rax), %xmm0, %xmm0
	movq	%r15, %rsi
	movq	%r12, %rdi
	vmovsd	%xmm0, 248(%rsp)
	call	_gfortran_transfer_real_write@PLT
	movq	%r12, %rdi
	call	_gfortran_st_write_done@PLT
	movq	168(%rsp), %rax
	movq	%r12, %rdi
	movq	%rax, 264(%rsp)
	leaq	.LC41(%rip), %rax
	movq	%rax, 336(%rsp)
	movq	144(%rsp), %rax
	movl	$6581, 272(%rsp)
	movl	(%rax), %eax
	movq	$50, 344(%rsp)
	movl	%eax, 260(%rsp)
	movl	$4096, 256(%rsp)
	call	_gfortran_st_write@PLT
	movl	$6, %edx
	leaq	.LC42(%rip), %rsi
	movq	%r12, %rdi
	call	_gfortran_transfer_character_write@PLT
	leaq	196(%rsp), %rsi
	movl	$4, %edx
	movq	%r12, %rdi
	call	_gfortran_transfer_integer_write@PLT
	movl	$4, %edx
	leaq	.LC43(%rip), %rsi
	movq	%r12, %rdi
	call	_gfortran_transfer_character_write@PLT
	movq	24(%rsp), %rsi
	movl	$8, %edx
	movq	%r12, %rdi
	call	_gfortran_transfer_real_write@PLT
	movl	$5, %edx
	leaq	.LC44(%rip), %rsi
	movq	%r12, %rdi
	call	_gfortran_transfer_character_write@PLT
	movq	88(%rsp), %rax
	leaq	bas_(%rip), %rdi
	vmovsd	(%rbx,%rax,8), %xmm0
	movl	$8, %edx
	vmulsd	(%rdi), %xmm0, %xmm0
	movq	%r15, %rsi
	movq	%r12, %rdi
	vmovsd	%xmm0, 248(%rsp)
	call	_gfortran_transfer_real_write@PLT
	movl	$15, %edx
	leaq	.LC45(%rip), %rsi
	movq	%r12, %rdi
	call	_gfortran_transfer_character_write@PLT
	movq	88(%rsp), %rax
	leaq	bas_(%rip), %rdi
	vmovsd	80000(%rbx,%rax,8), %xmm0
	movl	$8, %edx
	vmulsd	(%rdi), %xmm0, %xmm0
	movq	%r15, %rsi
	movq	%r12, %rdi
	vmovsd	%xmm0, 248(%rsp)
	call	_gfortran_transfer_real_write@PLT
	movl	$4, %edx
	leaq	.LC46(%rip), %rsi
	movq	%r12, %rdi
	call	_gfortran_transfer_character_write@PLT
	movq	56(%rsp), %rsi
	leaq	bon_(%rip), %rdx
	movl	120000(%rdx,%rsi,4), %eax
	movq	88(%rsp), %rcx
	movq	%r15, %rsi
	subl	120000(%rdx,%rcx,4), %eax
	movq	%r12, %rdi
	movl	$4, %edx
	movl	%eax, 248(%rsp)
	incl	184(%rsp)
	call	_gfortran_transfer_integer_write@PLT
	movl	$5, %edx
	leaq	.LC47(%rip), %rsi
	movq	%r12, %rdi
	call	_gfortran_transfer_character_write@PLT
	movq	88(%rsp), %rax
	movl	$4, %edx
	leaq	(%rax,%rax), %rcx
	leaq	480000(,%rax,8), %rax
	leaq	(%rbx,%rax), %rsi
	movq	%r12, %rdi
	movq	%rax, 176(%rsp)
	movq	%rcx, 88(%rsp)
	call	_gfortran_transfer_integer_write@PLT
	movl	$5, %edx
	leaq	.LC48(%rip), %rsi
	movq	%r12, %rdi
	call	_gfortran_transfer_character_write@PLT
	movq	88(%rsp), %rcx
	movl	$4, %edx
	leaq	480004(%rbx,%rcx,4), %rsi
	movq	%r12, %rdi
	call	_gfortran_transfer_integer_write@PLT
	movl	$4, %edx
	leaq	.LC49(%rip), %rsi
	movq	%r12, %rdi
	call	_gfortran_transfer_character_write@PLT
	movq	176(%rsp), %rax
	movl	$8, %edx
	leaq	-80000(%rbx,%rax), %rsi
	movq	%r12, %rdi
	call	_gfortran_transfer_real_write@PLT
	movq	%r12, %rdi
	call	_gfortran_st_write_done@PLT
	movl	184(%rsp), %edi
	movl	%edi, 196(%rsp)
	jmp	.L153
	.p2align 4,,10
	.p2align 3
.L174:
	movq	168(%rsp), %rcx
	movl	$6561, 272(%rsp)
	movq	%rcx, 264(%rsp)
	leaq	.LC33(%rip), %rcx
	jmp	.L182
	.p2align 4,,10
	.p2align 3
.L189:
	movq	144(%rsp), %rdi
	movl	(%rdi), %esi
	jmp	.L156
	.p2align 4,,10
	.p2align 3
.L185:
	vzeroupper
	jmp	.L140
.L167:
	movl	184(%rsp), %ecx
	jmp	.L141
.L136:
	leaq	.LC2(%rip), %rcx
	movl	%eax, 20788(%rsp)
	leaq	20784(%rsp), %rax
	movq	%rax, %r14
	movq	%rax, %rdi
	movq	%rcx, 168(%rsp)
	movq	%rcx, 20792(%rsp)
	leaq	.LC16(%rip), %rcx
	movq	%rcx, 20864(%rsp)
	movq	%rax, 80(%rsp)
	movl	$6518, 20800(%rsp)
	movq	$32, 20872(%rsp)
	movl	$4096, 20784(%rsp)
	call	_gfortran_st_write@PLT
	movl	$17, %edx
	leaq	.LC17(%rip), %rsi
	movq	%r14, %rdi
	call	_gfortran_transfer_character_write@PLT
	movq	24(%rsp), %rsi
	movl	$8, %edx
	movq	%r14, %rdi
	call	_gfortran_transfer_real_write@PLT
	movl	$8, %edx
	leaq	.LC5(%rip), %rsi
	movq	%r14, %rdi
	call	_gfortran_transfer_character_write@PLT
	movl	$8, %edx
	movq	%r12, %rsi
	movq	%r14, %rdi
	call	_gfortran_transfer_real_write@PLT
	movl	$6, %edx
	leaq	.LC6(%rip), %rsi
	movq	%r14, %rdi
	call	_gfortran_transfer_character_write@PLT
	vmovsd	(%rbx), %xmm0
	leaq	248(%rsp), %r15
	vmulsd	bas_(%rip), %xmm0, %xmm0
	movq	%r15, %rsi
	movl	$8, %edx
	movq	%r14, %rdi
	vmovsd	%xmm0, 248(%rsp)
	call	_gfortran_transfer_real_write@PLT
	movq	%r14, %rdi
	call	_gfortran_st_write_done@PLT
	movl	60+wal_(%rip), %esi
	movq	$0x000000000, 208(%rsp)
	movq	$0x000000000, 224(%rsp)
	movq	$0x000000000, 240(%rsp)
	testl	%esi, %esi
	je	.L138
.L184:
	movq	168(%rsp), %rax
	movq	80(%rsp), %rbx
	movq	%rax, 20792(%rsp)
	leaq	.LC18(%rip), %rax
	movq	%rax, 20864(%rsp)
	movq	144(%rsp), %rax
	movq	%rbx, %rdi
	movl	(%rax), %eax
	movl	$6524, 20800(%rsp)
	movl	%eax, 20788(%rsp)
	movq	$25, 20872(%rsp)
	movl	$4096, 20784(%rsp)
	call	_gfortran_st_write@PLT
	movq	%rbx, %rdi
	movl	$6, %edx
	leaq	.LC19(%rip), %rsi
	call	_gfortran_transfer_character_write@PLT
	leaq	200(%rsp), %rsi
	movq	%rbx, %rdi
	movl	$8, %edx
	call	_gfortran_transfer_real_write@PLT
	leaq	216(%rsp), %rsi
	movq	%rbx, %rdi
	movl	$8, %edx
	call	_gfortran_transfer_real_write@PLT
	leaq	232(%rsp), %rsi
	movq	%rbx, %rdi
	movl	$8, %edx
	call	_gfortran_transfer_real_write@PLT
	movq	%rbx, %rdi
	movl	$4, %edx
	leaq	.LC20(%rip), %rsi
	call	_gfortran_transfer_real_write@PLT
	movq	%rbx, %rdi
	movl	$4, %edx
	leaq	.LC20(%rip), %rsi
	call	_gfortran_transfer_real_write@PLT
	movq	%rbx, %rdi
	movl	$4, %edx
	leaq	.LC20(%rip), %rsi
	call	_gfortran_transfer_real_write@PLT
	movq	%rbx, %rdi
	movl	$3, %edx
	leaq	.LC21(%rip), %rsi
	call	_gfortran_transfer_character_write@PLT
	movq	%rbx, %rdi
	movl	$1, %edx
	leaq	.LC22(%rip), %rsi
	call	_gfortran_transfer_character_write@PLT
	movq	%rbx, %rdi
	call	_gfortran_st_write_done@PLT
	jmp	.L138
.L131:
	vmovsd	pos_(%rip), %xmm2
	vmovsd	80000+pos_(%rip), %xmm1
	vmovsd	160000+pos_(%rip), %xmm0
	movl	8+bas_(%rip), %ecx
	vmovsd	%xmm2, 208(%rsp)
	vmovsd	%xmm1, 224(%rsp)
	vmovsd	%xmm0, 240(%rsp)
	cmpl	$1, %ecx
	jle	.L132
	leal	-2(%rcx), %eax
	leal	-1(%rcx), %esi
	cmpl	$2, %eax
	jbe	.L165
	movl	%esi, %edx
	shrl	$2, %edx
	leaq	8+pos_(%rip), %rax
	salq	$5, %rdx
	vbroadcastsd	%xmm2, %ymm2
	vbroadcastsd	%xmm1, %ymm1
	vbroadcastsd	%xmm0, %ymm0
	addq	%rax, %rdx
	.p2align 4,,10
	.p2align 3
.L134:
	vminpd	(%rax), %ymm2, %ymm2
	vminpd	80000(%rax), %ymm1, %ymm1
	vminpd	160000(%rax), %ymm0, %ymm0
	addq	$32, %rax
	cmpq	%rdx, %rax
	jne	.L134
	vextractf128	$0x1, %ymm0, %xmm3
	vminpd	%xmm0, %xmm3, %xmm3
	movl	%esi, %eax
	andl	$-4, %eax
	vunpckhpd	%xmm3, %xmm3, %xmm0
	vminpd	%xmm3, %xmm0, %xmm0
	vextractf128	$0x1, %ymm1, %xmm3
	vminpd	%xmm1, %xmm3, %xmm3
	leal	2(%rax), %edx
	vunpckhpd	%xmm3, %xmm3, %xmm1
	vminpd	%xmm3, %xmm1, %xmm1
	vextractf128	$0x1, %ymm2, %xmm3
	vminpd	%xmm2, %xmm3, %xmm3
	vunpckhpd	%xmm3, %xmm3, %xmm2
	vminpd	%xmm3, %xmm2, %xmm2
	cmpl	%esi, %eax
	je	.L190
	vzeroupper
.L133:
	leal	-1(%rdx), %esi
	movslq	%esi, %rsi
	leaq	pos_(%rip), %rax
	vminsd	(%rax,%rsi,8), %xmm2, %xmm2
	vminsd	80000(%rax,%rsi,8), %xmm1, %xmm1
	vminsd	160000(%rax,%rsi,8), %xmm0, %xmm0
	leal	1(%rdx), %esi
	cmpl	%esi, %ecx
	jl	.L135
	movslq	%edx, %rdi
	addl	$2, %edx
	vminsd	(%rax,%rdi,8), %xmm2, %xmm2
	vminsd	80000(%rax,%rdi,8), %xmm1, %xmm1
	vminsd	160000(%rax,%rdi,8), %xmm0, %xmm0
	cmpl	%edx, %ecx
	jl	.L135
	movslq	%esi, %rdx
	vminsd	(%rax,%rdx,8), %xmm2, %xmm2
	vminsd	80000(%rax,%rdx,8), %xmm1, %xmm1
	vminsd	160000(%rax,%rdx,8), %xmm0, %xmm0
.L135:
	vmovsd	%xmm2, 208(%rsp)
	vmovsd	%xmm1, 224(%rsp)
	vmovsd	%xmm0, 240(%rsp)
	jmp	.L132
.L176:
	movq	168(%rsp), %rax
	movq	%r12, %rdi
	movq	%rax, 264(%rsp)
	leaq	.LC40(%rip), %rax
	movq	%r8, 40(%rsp)
	movq	%r10, 48(%rsp)
	movq	%r9, 32(%rsp)
	movq	%rax, 336(%rsp)
	movl	%esi, 260(%rsp)
	movl	$6576, 272(%rsp)
	movq	$27, 344(%rsp)
	movl	$4096, 256(%rsp)
	call	_gfortran_st_write@PLT
	movl	$6, %edx
	leaq	.LC37(%rip), %rsi
	movq	%r12, %rdi
	call	_gfortran_transfer_character_write@PLT
	movq	104(%rsp), %rsi
	movl	$4, %edx
	movq	%r12, %rdi
	call	_gfortran_transfer_integer_write@PLT
	movl	$4, %edx
	leaq	.LC38(%rip), %rsi
	movq	%r12, %rdi
	call	_gfortran_transfer_character_write@PLT
	movl	$3, %edx
	leaq	.LC39(%rip), %rsi
	movq	%r12, %rdi
	call	_gfortran_transfer_character_write@PLT
	movq	176(%rsp), %rsi
	movl	$2, %edx
	movq	%r12, %rdi
	call	_gfortran_transfer_character_write@PLT
	movq	152(%rsp), %rax
	movl	$4, %edx
	movl	(%rax), %eax
	movq	%r15, %rsi
	movl	%eax, 176(%rsp)
	movq	%r12, %rdi
	incl	%eax
	movl	%eax, 248(%rsp)
	call	_gfortran_transfer_integer_write@PLT
	movq	32(%rsp), %r9
	leaq	bas_(%rip), %rax
	vmovsd	(%rbx,%r9,8), %xmm0
	movl	$8, %edx
	vsubsd	160(%rsp), %xmm0, %xmm0
	movq	%r15, %rsi
	movq	%r12, %rdi
	vmulsd	(%rax), %xmm0, %xmm0
	vmovsd	%xmm0, 248(%rsp)
	call	_gfortran_transfer_real_write@PLT
	movq	48(%rsp), %r10
	leaq	bas_(%rip), %rax
	vmovsd	(%rbx,%r10,8), %xmm0
	movl	$8, %edx
	vsubsd	128(%rsp), %xmm0, %xmm0
	movq	%r15, %rsi
	movq	%r12, %rdi
	vmulsd	(%rax), %xmm0, %xmm0
	vmovsd	%xmm0, 248(%rsp)
	call	_gfortran_transfer_real_write@PLT
	movq	40(%rsp), %r8
	vmovsd	(%rbx,%r8,8), %xmm0
	jmp	.L183
.L190:
	vzeroupper
	jmp	.L135
.L139:
	movq	144(%rsp), %rax
	leaq	256(%rsp), %r12
	movl	(%rax), %esi
	jmp	.L161
.L165:
	movl	$2, %edx
	jmp	.L133
.L188:
	subl	$5, %eax
	jmp	.L145
.L187:
	call	__stack_chk_fail@PLT
	.cfi_endproc
.LFE6:
	.size	print_conformation_, .-print_conformation_
	.p2align 4
	.globl	print_conf_xyz_
	.type	print_conf_xyz_, @function
print_conf_xyz_:
.LFB7:
	.cfi_startproc
	pushq	%r15
	.cfi_def_cfa_offset 16
	.cfi_offset 15, -16
	pushq	%r14
	.cfi_def_cfa_offset 24
	.cfi_offset 14, -24
	movq	%rdi, %r14
	pushq	%r13
	.cfi_def_cfa_offset 32
	.cfi_offset 13, -32
	movq	%rsi, %r13
	pushq	%r12
	.cfi_def_cfa_offset 40
	.cfi_offset 12, -40
	movq	%rdx, %r12
	pushq	%rbp
	.cfi_def_cfa_offset 48
	.cfi_offset 6, -48
	movq	%rcx, %rbp
	pushq	%rbx
	.cfi_def_cfa_offset 56
	.cfi_offset 3, -56
	subq	$584, %rsp
	.cfi_def_cfa_offset 640
	movq	%fs:40, %rax
	movq	%rax, 568(%rsp)
	leaq	.LC2(%rip), %rax
	leaq	32(%rsp), %rbx
	movl	$6613, 48(%rsp)
	movq	$30, 120(%rsp)
	movl	$4096, 32(%rsp)
	movq	%rax, 40(%rsp)
	leaq	.LC3(%rip), %rax
	movq	%rax, 112(%rsp)
	movl	(%rdi), %eax
	movq	%rbx, %rdi
	movl	%eax, 36(%rsp)
	call	_gfortran_st_write@PLT
	movl	$6, %edx
	leaq	.LC4(%rip), %rsi
	movq	%rbx, %rdi
	call	_gfortran_transfer_character_write@PLT
	movl	$8, %edx
	movq	%r13, %rsi
	movq	%rbx, %rdi
	call	_gfortran_transfer_real_write@PLT
	movl	$8, %edx
	leaq	.LC5(%rip), %rsi
	movq	%rbx, %rdi
	call	_gfortran_transfer_character_write@PLT
	movq	%r12, %rsi
	movl	$8, %edx
	movq	%rbx, %rdi
	call	_gfortran_transfer_real_write@PLT
	movl	$6, %edx
	leaq	.LC6(%rip), %rsi
	movq	%rbx, %rdi
	call	_gfortran_transfer_character_write@PLT
	vmovsd	0(%rbp), %xmm0
	leaq	24(%rsp), %r12
	vmulsd	bas_(%rip), %xmm0, %xmm0
	movl	$8, %edx
	movq	%r12, %rsi
	movq	%rbx, %rdi
	vmovsd	%xmm0, 24(%rsp)
	call	_gfortran_transfer_real_write@PLT
	movq	%rbx, %rdi
	call	_gfortran_st_write_done@PLT
	movl	8+bas_(%rip), %eax
	movl	%eax, 12(%rsp)
	testl	%eax, %eax
	jle	.L191
	leaq	pos_(%rip), %rbp
	movl	$1, %r15d
	leaq	bas_(%rip), %r13
	.p2align 4,,10
	.p2align 3
.L193:
	movl	(%r14), %edx
	leaq	.LC2(%rip), %rax
	movq	%rax, 40(%rsp)
	movq	%rbx, %rdi
	leaq	.LC7(%rip), %rax
	movq	%rax, 112(%rsp)
	movl	%edx, 36(%rsp)
	movl	$6617, 48(%rsp)
	movq	$7, 120(%rsp)
	movl	$4096, 32(%rsp)
	call	_gfortran_st_write@PLT
	vmovsd	0(%rbp), %xmm0
	movl	$8, %edx
	vmulsd	0(%r13), %xmm0, %xmm0
	movq	%r12, %rsi
	movq	%rbx, %rdi
	incl	%r15d
	addq	$8, %rbp
	vmovsd	%xmm0, 24(%rsp)
	call	_gfortran_transfer_real_write@PLT
	vmovsd	79992(%rbp), %xmm0
	movl	$8, %edx
	vmulsd	0(%r13), %xmm0, %xmm0
	movq	%r12, %rsi
	movq	%rbx, %rdi
	vmovsd	%xmm0, 24(%rsp)
	call	_gfortran_transfer_real_write@PLT
	vmovsd	159992(%rbp), %xmm0
	movl	$8, %edx
	vmulsd	0(%r13), %xmm0, %xmm0
	movq	%r12, %rsi
	movq	%rbx, %rdi
	vmovsd	%xmm0, 24(%rsp)
	call	_gfortran_transfer_real_write@PLT
	movq	%rbx, %rdi
	call	_gfortran_st_write_done@PLT
	cmpl	%r15d, 12(%rsp)
	jge	.L193
.L191:
	movq	568(%rsp), %rax
	subq	%fs:40, %rax
	jne	.L198
	addq	$584, %rsp
	.cfi_remember_state
	.cfi_def_cfa_offset 56
	popq	%rbx
	.cfi_def_cfa_offset 48
	popq	%rbp
	.cfi_def_cfa_offset 40
	popq	%r12
	.cfi_def_cfa_offset 32
	popq	%r13
	.cfi_def_cfa_offset 24
	popq	%r14
	.cfi_def_cfa_offset 16
	popq	%r15
	.cfi_def_cfa_offset 8
	ret
.L198:
	.cfi_restore_state
	call	__stack_chk_fail@PLT
	.cfi_endproc
.LFE7:
	.size	print_conf_xyz_, .-print_conf_xyz_
	.section	.rodata.str1.1
.LC58:
	.string	"(a"
.LC59:
	.string	",i2.2,i10.10,a)"
.LC61:
	.string	".rst"
.LC62:
	.string	"unknown"
.LC63:
	.string	"(2f18.3)"
.LC64:
	.string	"(8f14.6)"
.LC65:
	.string	"(7i10)"
.LC67:
	.string	"(2i8)"
	.text
	.p2align 4
	.globl	print_restart_
	.type	print_restart_, @function
print_restart_:
.LFB9:
	.cfi_startproc
	pushq	%rbp
	.cfi_def_cfa_offset 16
	.cfi_offset 6, -16
	vxorps	%xmm0, %xmm0, %xmm0
	movq	%rsp, %rbp
	.cfi_def_cfa_register 6
	pushq	%r15
	.cfi_offset 15, -24
	leaq	88+restart_(%rip), %r15
	pushq	%r14
	.cfi_offset 14, -32
	movq	%rsi, %r14
	pushq	%r13
	.cfi_offset 13, -40
	leaq	.LC2(%rip), %r13
	pushq	%r12
	pushq	%rbx
	.cfi_offset 12, -48
	.cfi_offset 3, -56
	leaq	-64(%r15), %rbx
	andq	$-32, %rsp
	subq	$992, %rsp
	vcvtsi2sdl	(%rdi), %xmm0, %xmm0
	leaq	448(%rsp), %r12
	movq	%fs:40, %rax
	movq	%rax, 984(%rsp)
	xorl	%eax, %eax
	movq	%r12, %rdi
	vmulsd	restart_(%rip), %xmm0, %xmm0
	movabsq	$-4294950784, %rax
	movq	%rax, 448(%rsp)
	movq	%r15, 560(%rsp)
	movq	%r13, 456(%rsp)
	vmovsd	%xmm0, 24(%rsp)
	vmovsd	%xmm0, 8(%rsp)
	movl	$6644, 464(%rsp)
	movq	$32, 568(%rsp)
	movq	$0, 520(%rsp)
	call	_gfortran_st_write@PLT
	movq	%r12, %rdi
	movl	$2, %edx
	leaq	.LC58(%rip), %rsi
	call	_gfortran_transfer_character_write@PLT
	leaq	64(%r15), %rsi
	movq	%r12, %rdi
	movl	$4, %edx
	call	_gfortran_transfer_integer_write@PLT
	movl	$15, %edx
	leaq	.LC59(%rip), %rsi
	movq	%r12, %rdi
	call	_gfortran_transfer_character_write@PLT
	movq	%r12, %rdi
	call	_gfortran_st_write_done@PLT
	movabsq	$-4294946816, %rax
	movq	%r12, %rdi
	movq	%rax, 448(%rsp)
	movq	%rbx, 560(%rsp)
	movq	%r15, 528(%rsp)
	movq	%r13, 456(%rsp)
	movl	$6645, 464(%rsp)
	movq	$64, 568(%rsp)
	movq	$0, 520(%rsp)
	movq	$32, 536(%rsp)
	call	_gfortran_st_write@PLT
	leaq	32(%r15), %rsi
	movq	%r12, %rdi
	movl	$32, %edx
	call	_gfortran_transfer_character_write@PLT
	movq	%r14, %rsi
	movq	%r12, %rdi
	movl	$4, %edx
	call	_gfortran_transfer_integer_write@PLT
	vmovsd	8(%rsp), %xmm0
	vmovsd	.LC11(%rip), %xmm2
	vmovsd	.LC60(%rip), %xmm1
	vandpd	%xmm0, %xmm2, %xmm2
	vorpd	%xmm2, %xmm1, %xmm1
	vaddsd	%xmm0, %xmm1, %xmm0
	leaq	32(%rsp), %r15
	movq	%r15, %rsi
	vcvttsd2sil	%xmm0, %eax
	movq	%r12, %rdi
	movl	$4, %edx
	movq	%r15, (%rsp)
	movl	%eax, 32(%rsp)
	call	_gfortran_transfer_integer_write@PLT
	movl	$4, %edx
	leaq	.LC61(%rip), %rsi
	movq	%r12, %rdi
	call	_gfortran_transfer_character_write@PLT
	movq	%r12, %rdi
	call	_gfortran_st_write_done@PLT
	leaq	.LC62(%rip), %rax
	movq	%rax, 104(%rsp)
	movq	%r15, %rdi
	movabsq	$90211091200, %rax
	movq	%rbx, 96(%rsp)
	movq	%rax, 32(%rsp)
	movabsq	$90194317312, %rbx
	movq	%r13, 40(%rsp)
	movl	$6646, 48(%rsp)
	movq	$64, 88(%rsp)
	movq	$7, 112(%rsp)
	movl	$0, 336(%rsp)
	call	_gfortran_st_open@PLT
	leaq	.LC63(%rip), %rax
	movq	%r12, %rdi
	movq	%rax, 528(%rsp)
	movq	%r13, 456(%rsp)
	movl	$6647, 464(%rsp)
	movq	$8, 536(%rsp)
	movq	%rbx, 448(%rsp)
	call	_gfortran_st_write@PLT
	leaq	24(%rsp), %rsi
	movq	%r12, %rdi
	movl	$8, %edx
	call	_gfortran_transfer_real_write@PLT
	movl	$8, %edx
	leaq	8+restart_(%rip), %rsi
	movq	%r12, %rdi
	call	_gfortran_transfer_real_write@PLT
	movq	%r12, %rdi
	call	_gfortran_st_write_done@PLT
	leaq	.LC64(%rip), %rax
	movq	%r12, %rdi
	movq	%rax, 528(%rsp)
	movq	%r13, 456(%rsp)
	movl	$6648, 464(%rsp)
	movq	$8, 536(%rsp)
	movq	%rbx, 448(%rsp)
	call	_gfortran_st_write@PLT
	movq	%r12, %rdi
	movl	$8, %edx
	leaq	8+plates_(%rip), %rsi
	call	_gfortran_transfer_real_write@PLT
	movq	%r12, %rdi
	movl	$8, %edx
	leaq	plates_(%rip), %rsi
	call	_gfortran_transfer_real_write@PLT
	movq	%r12, %rdi
	movl	$8, %edx
	leaq	56+plates_(%rip), %rsi
	call	_gfortran_transfer_real_write@PLT
	movq	%r12, %rdi
	movl	$8, %edx
	leaq	64+plates_(%rip), %rsi
	call	_gfortran_transfer_real_write@PLT
	movq	%r12, %rdi
	movl	$8, %edx
	leaq	40+plates_(%rip), %rsi
	call	_gfortran_transfer_real_write@PLT
	movq	%r12, %rdi
	movl	$8, %edx
	leaq	48+plates_(%rip), %rsi
	call	_gfortran_transfer_real_write@PLT
	movq	%r12, %rdi
	movl	$8, %edx
	leaq	16+restart_(%rip), %rsi
	call	_gfortran_transfer_real_write@PLT
	movl	$8, %edx
	leaq	24+kier_(%rip), %rsi
	movq	%r12, %rdi
	call	_gfortran_transfer_real_write@PLT
	movq	%r12, %rdi
	call	_gfortran_st_write_done@PLT
	leaq	.LC65(%rip), %rax
	movq	%r12, %rdi
	movq	%rax, 528(%rsp)
	movq	%r13, 456(%rsp)
	movl	$6649, 464(%rsp)
	movq	$6, 536(%rsp)
	movq	%rbx, 448(%rsp)
	call	_gfortran_st_write@PLT
	leaq	8+wal_(%rip), %rax
	movq	%rax, 384(%rsp)
	movabsq	$1103806595072, %rax
	movq	%rax, 408(%rsp)
	vmovdqa	.LC66(%rip), %ymm0
	leaq	384(%rsp), %rax
	xorl	%ecx, %ecx
	movl	$4, %edx
	movq	%rax, %rsi
	movq	%r12, %rdi
	movq	$-1, 392(%rsp)
	movq	$4, 400(%rsp)
	movq	%rax, 8(%rsp)
	vmovdqa	%ymm0, 416(%rsp)
	vzeroupper
	call	_gfortran_transfer_array_write@PLT
	movq	%r12, %rdi
	call	_gfortran_st_write_done@PLT
	leaq	.LC67(%rip), %rax
	movq	%r12, %rdi
	movq	%rax, 528(%rsp)
	movq	%rbx, 448(%rsp)
	movq	%r13, 456(%rsp)
	movl	$6650, 464(%rsp)
	movq	$5, 536(%rsp)
	call	_gfortran_st_write@PLT
	movl	$4, %edx
	leaq	2000016+cmapi_(%rip), %rsi
	movq	%r12, %rdi
	call	_gfortran_transfer_integer_write@PLT
	movl	$4, %edx
	leaq	2000024+cmapi_(%rip), %rsi
	movq	%r12, %rdi
	call	_gfortran_transfer_integer_write@PLT
	movq	%r12, %rdi
	call	_gfortran_st_write_done@PLT
	movl	8+bas_(%rip), %r14d
	movl	$1, 20(%rsp)
	leaq	ssb_(%rip), %rbx
	movl	$1, %r15d
	testl	%r14d, %r14d
	jg	.L206
	jmp	.L204
	.p2align 4,,10
	.p2align 3
.L203:
	incl	%r15d
	movl	%r15d, 20(%rsp)
	addq	$4, %rbx
	cmpl	%r14d, %r15d
	jg	.L204
.L206:
	movl	40000(%rbx), %edx
	testl	%edx, %edx
	je	.L203
	movabsq	$90194313344, %rax
	movq	%r12, %rdi
	movq	%rax, 448(%rsp)
	movq	%r13, 456(%rsp)
	movl	$6652, 464(%rsp)
	call	_gfortran_st_write@PLT
	leaq	20(%rsp), %rsi
	movq	%r12, %rdi
	movl	$4, %edx
	call	_gfortran_transfer_integer_write@PLT
	movq	%r12, %rdi
	movl	$4, %edx
	movq	%rbx, %rsi
	call	_gfortran_transfer_integer_write@PLT
	movq	%r12, %rdi
	call	_gfortran_st_write_done@PLT
	jmp	.L203
	.p2align 4,,10
	.p2align 3
.L204:
	movabsq	$90194313344, %rbx
	movq	%r12, %rdi
	movq	%rbx, 448(%rsp)
	movq	%r13, 456(%rsp)
	movl	$6654, 464(%rsp)
	call	_gfortran_st_write@PLT
	movslq	8+bas_(%rip), %rax
	movq	8(%rsp), %rsi
	movq	%rax, 440(%rsp)
	leaq	80000+respul_(%rip), %rax
	xorl	%ecx, %ecx
	movl	$4, %edx
	movq	%rax, 384(%rsp)
	movq	%r12, %rdi
	movabsq	$1103806595072, %rax
	movq	%rax, 408(%rsp)
	movq	$-1, 392(%rsp)
	movq	$4, 400(%rsp)
	movq	$4, 416(%rsp)
	movq	$1, 424(%rsp)
	movq	$1, 432(%rsp)
	call	_gfortran_transfer_array_write@PLT
	movq	%r12, %rdi
	call	_gfortran_st_write_done@PLT
	movq	%r12, %rdi
	movq	%rbx, 448(%rsp)
	movq	%r13, 456(%rsp)
	movl	$6655, 464(%rsp)
	leaq	pull_(%rip), %rbx
	call	_gfortran_st_write@PLT
	movl	$1, %r14d
	movl	$1, 20(%rsp)
	movl	8+bas_(%rip), %r15d
	testb	$1, 448(%rsp)
	je	.L209
	jmp	.L201
	.p2align 4,,10
	.p2align 3
.L224:
	movq	%rbx, %rsi
	movl	$8, %edx
	movq	%r12, %rdi
	call	_gfortran_transfer_real_write@PLT
	leaq	80000(%rbx), %rsi
	movl	$8, %edx
	movq	%r12, %rdi
	call	_gfortran_transfer_real_write@PLT
	incl	%r14d
	leaq	160000(%rbx), %rsi
	movl	$8, %edx
	movq	%r12, %rdi
	call	_gfortran_transfer_real_write@PLT
	addq	$8, %rbx
	movl	%r14d, 20(%rsp)
	testb	$1, 448(%rsp)
	jne	.L201
.L209:
	cmpl	%r14d, %r15d
	jge	.L224
.L201:
	movq	%r12, %rdi
	call	_gfortran_st_write_done@PLT
	movabsq	$90194313344, %rax
	movq	%r12, %rdi
	movq	%r13, 456(%rsp)
	movl	$6656, 464(%rsp)
	movq	%rax, 448(%rsp)
	leaq	pos_(%rip), %rbx
	call	_gfortran_st_write@PLT
	movl	$1, %r14d
	movl	$1, 20(%rsp)
	movl	8+bas_(%rip), %r15d
	testb	$1, 448(%rsp)
	je	.L212
	jmp	.L207
	.p2align 4,,10
	.p2align 3
.L225:
	movq	%rbx, %rsi
	movl	$8, %edx
	movq	%r12, %rdi
	call	_gfortran_transfer_real_write@PLT
	leaq	80000(%rbx), %rsi
	movl	$8, %edx
	movq	%r12, %rdi
	call	_gfortran_transfer_real_write@PLT
	incl	%r14d
	leaq	160000(%rbx), %rsi
	movl	$8, %edx
	movq	%r12, %rdi
	call	_gfortran_transfer_real_write@PLT
	addq	$8, %rbx
	movl	%r14d, 20(%rsp)
	testb	$1, 448(%rsp)
	jne	.L207
.L212:
	cmpl	%r14d, %r15d
	jge	.L225
.L207:
	movq	%r12, %rdi
	call	_gfortran_st_write_done@PLT
	movabsq	$90194313344, %rax
	movq	%r12, %rdi
	movq	%r13, 456(%rsp)
	movl	$6657, 464(%rsp)
	movq	%rax, 448(%rsp)
	leaq	vel_(%rip), %rbx
	call	_gfortran_st_write@PLT
	movl	$1, %r14d
	movl	$1, 20(%rsp)
	movl	8+bas_(%rip), %r15d
	testb	$1, 448(%rsp)
	je	.L215
	jmp	.L210
	.p2align 4,,10
	.p2align 3
.L226:
	movq	%rbx, %rsi
	movl	$8, %edx
	movq	%r12, %rdi
	call	_gfortran_transfer_real_write@PLT
	leaq	80000(%rbx), %rsi
	movl	$8, %edx
	movq	%r12, %rdi
	call	_gfortran_transfer_real_write@PLT
	incl	%r14d
	leaq	160000(%rbx), %rsi
	movl	$8, %edx
	movq	%r12, %rdi
	call	_gfortran_transfer_real_write@PLT
	addq	$8, %rbx
	movl	%r14d, 20(%rsp)
	testb	$1, 448(%rsp)
	jne	.L210
.L215:
	cmpl	%r14d, %r15d
	jge	.L226
.L210:
	movq	%r12, %rdi
	call	_gfortran_st_write_done@PLT
	movabsq	$90194313344, %rbx
	movq	%r12, %rdi
	movq	%r13, 456(%rsp)
	movl	$6658, 464(%rsp)
	movq	%rbx, 448(%rsp)
	call	_gfortran_st_write@PLT
	movl	$4, %edx
	leaq	8+ssb2_(%rip), %rsi
	movq	%r12, %rdi
	call	_gfortran_transfer_integer_write@PLT
	movl	$4, %edx
	leaq	12+ssb2_(%rip), %rsi
	movq	%r12, %rdi
	call	_gfortran_transfer_integer_write@PLT
	movl	$4, %edx
	leaq	120000+respul_(%rip), %rsi
	movq	%r12, %rdi
	call	_gfortran_transfer_integer_write@PLT
	movl	$4, %edx
	leaq	120004+respul_(%rip), %rsi
	movq	%r12, %rdi
	call	_gfortran_transfer_integer_write@PLT
	movq	%r12, %rdi
	call	_gfortran_st_write_done@PLT
	movl	60+wal_(%rip), %eax
	testl	%eax, %eax
	jne	.L227
.L214:
	movabsq	$90194313344, %rax
	movq	%r12, %rdi
	movq	%rax, 448(%rsp)
	movq	%r13, 456(%rsp)
	movl	$6663, 464(%rsp)
	call	_gfortran_st_write@PLT
	movl	$4, %edx
	leaq	48+kier_(%rip), %rsi
	movq	%r12, %rdi
	call	_gfortran_transfer_integer_write@PLT
	movq	%r12, %rdi
	call	_gfortran_st_write_done@PLT
	movq	(%rsp), %rdi
	movabsq	$90194313216, %rax
	movq	%rax, 32(%rsp)
	movq	%r13, 40(%rsp)
	movl	$6664, 48(%rsp)
	call	_gfortran_st_close@PLT
	movq	984(%rsp), %rax
	subq	%fs:40, %rax
	jne	.L228
	leaq	-40(%rbp), %rsp
	popq	%rbx
	popq	%r12
	popq	%r13
	popq	%r14
	popq	%r15
	popq	%rbp
	.cfi_remember_state
	.cfi_def_cfa 7, 8
	ret
	.p2align 4,,10
	.p2align 3
.L227:
	.cfi_restore_state
	movq	%r12, %rdi
	movq	%r13, 456(%rsp)
	movl	$6660, 464(%rsp)
	movq	%rbx, 448(%rsp)
	call	_gfortran_st_write@PLT
	movq	8(%rsp), %r14
	movslq	8+bas_(%rip), %rax
	xorl	%ecx, %ecx
	movq	%r14, %rsi
	movl	$4, %edx
	movq	%rax, 440(%rsp)
	movabsq	$1103806595072, %r15
	leaq	120012+respul_(%rip), %rax
	movq	%r12, %rdi
	movq	%rax, 384(%rsp)
	movq	$-3, 392(%rsp)
	movq	$4, 400(%rsp)
	movq	%r15, 408(%rsp)
	movq	$4, 416(%rsp)
	movq	$2, 424(%rsp)
	movq	$1, 432(%rsp)
	call	_gfortran_transfer_array_write@PLT
	movq	%r12, %rdi
	call	_gfortran_st_write_done@PLT
	movq	%r12, %rdi
	movq	%r13, 456(%rsp)
	movl	$6661, 464(%rsp)
	movq	%rbx, 448(%rsp)
	call	_gfortran_st_write@PLT
	movslq	8+bas_(%rip), %rax
	movq	%r12, %rdi
	movq	%rax, 440(%rsp)
	xorl	%ecx, %ecx
	leaq	120016+respul_(%rip), %rax
	movl	$4, %edx
	movq	%r14, %rsi
	movq	%rax, 384(%rsp)
	movq	$-2, 392(%rsp)
	movq	$4, 400(%rsp)
	movq	%r15, 408(%rsp)
	movq	$4, 416(%rsp)
	movq	$2, 424(%rsp)
	movq	$1, 432(%rsp)
	call	_gfortran_transfer_array_write@PLT
	movq	%r12, %rdi
	call	_gfortran_st_write_done@PLT
	jmp	.L214
.L228:
	call	__stack_chk_fail@PLT
	.cfi_endproc
.LFE9:
	.size	print_restart_, .-print_restart_
	.p2align 4
	.globl	pvector_
	.type	pvector_, @function
pvector_:
.LFB12:
	.cfi_startproc
	vmovsd	16(%rdi), %xmm1
	vmovsd	8(%rsi), %xmm0
	vmovsd	8(%rdi), %xmm3
	vmulsd	%xmm0, %xmm1, %xmm2
	vmovsd	16(%rsi), %xmm4
	vmovsd	(%rdi), %xmm5
	vmovsd	(%rsi), %xmm6
	vfmsub231sd	%xmm4, %xmm3, %xmm2
	vmulsd	%xmm5, %xmm4, %xmm4
	vmulsd	%xmm6, %xmm3, %xmm3
	vmovsd	%xmm2, (%rdx)
	vfmsub132sd	%xmm6, %xmm4, %xmm1
	vfmsub132sd	%xmm5, %xmm3, %xmm0
	vmovsd	%xmm1, 8(%rdx)
	vmulsd	%xmm1, %xmm1, %xmm1
	vmovsd	%xmm0, 16(%rdx)
	vfmadd132sd	%xmm2, %xmm1, %xmm2
	vfmadd132sd	%xmm0, %xmm2, %xmm0
	vsqrtsd	%xmm0, %xmm0, %xmm0
	vmovsd	%xmm0, (%rcx)
	ret
	.cfi_endproc
.LFE12:
	.size	pvector_, .-pvector_
	.p2align 4
	.globl	norma_
	.type	norma_, @function
norma_:
.LFB13:
	.cfi_startproc
	vpermilpd	$1, (%rdi), %xmm1
	vmovupd	16(%rdi), %xmm5
	vmovhpd	32(%rdi), %xmm1, %xmm1
	vmulpd	%xmm1, %xmm1, %xmm1
	vmovlpd	(%rdi), %xmm5, %xmm2
	vmovhpd	(%rdi), %xmm5, %xmm0
	vmovhps	40(%rdi), %xmm0, %xmm0
	vmovapd	.LC68(%rip), %xmm4
	vfmadd231pd	%xmm2, %xmm2, %xmm1
	vfmadd132pd	%xmm0, %xmm1, %xmm0
	vmovupd	8(%rdi), %xmm1
	vmovhps	32(%rdi), %xmm1, %xmm3
	vsqrtpd	%xmm0, %xmm0
	vdivpd	%xmm0, %xmm4, %xmm4
	vpermilpd	$1, %xmm1, %xmm0
	vmovhpd	40(%rdi), %xmm0, %xmm0
	vmulpd	%xmm4, %xmm2, %xmm2
	vmulpd	%xmm4, %xmm3, %xmm3
	vmulpd	%xmm4, %xmm0, %xmm0
	vmovsd	48(%rdi), %xmm4
	vunpcklpd	%xmm3, %xmm2, %xmm1
	vmovsd	%xmm0, %xmm2, %xmm7
	vshufpd	$1, %xmm2, %xmm3, %xmm2
	vmovsd	56(%rdi), %xmm3
	vmovsd	%xmm2, %xmm0, %xmm5
	vmulsd	%xmm3, %xmm3, %xmm0
	vmovupd	%xmm1, (%rdi)
	vmovsd	64(%rdi), %xmm1
	vmovsd	.LC8(%rip), %xmm2
	vmovupd	%xmm7, 16(%rdi)
	vfmadd231sd	%xmm4, %xmm4, %xmm0
	vmovupd	%xmm5, 32(%rdi)
	vfmadd231sd	%xmm1, %xmm1, %xmm0
	vsqrtsd	%xmm0, %xmm0, %xmm0
	vdivsd	%xmm0, %xmm2, %xmm0
	vmulsd	%xmm0, %xmm4, %xmm4
	vmulsd	%xmm0, %xmm3, %xmm3
	vmulsd	%xmm0, %xmm1, %xmm1
	vmovsd	%xmm4, 48(%rdi)
	vmovsd	%xmm3, 56(%rdi)
	vmovsd	%xmm1, 64(%rdi)
	ret
	.cfi_endproc
.LFE13:
	.size	norma_, .-norma_
	.p2align 4
	.globl	eigsrt_
	.type	eigsrt_, @function
eigsrt_:
.LFB14:
	.cfi_startproc
	pushq	%rbp
	.cfi_def_cfa_offset 16
	.cfi_offset 6, -16
	movl	$0, %eax
	movq	%rsp, %rbp
	.cfi_def_cfa_register 6
	pushq	%r15
	pushq	%r14
	pushq	%r13
	pushq	%r12
	pushq	%rbx
	andq	$-32, %rsp
	.cfi_offset 15, -24
	.cfi_offset 14, -32
	.cfi_offset 13, -40
	.cfi_offset 12, -48
	.cfi_offset 3, -56
	movslq	(%rcx), %rbx
	movl	(%rdx), %ecx
	testq	%rbx, %rbx
	cmovs	%rax, %rbx
	movq	%rbx, %rax
	notq	%rax
	movq	%rax, -32(%rsp)
	cmpl	$1, %ecx
	jle	.L252
	leal	1(%rcx), %eax
	movq	%rax, -8(%rsp)
	leal	-1(%rcx), %eax
	movl	%eax, -24(%rsp)
	movl	%ecx, %eax
	shrl	$2, %eax
	movl	%ecx, %edx
	andl	$-4, %edx
	salq	$5, %rax
	movq	%rax, %r15
	leal	1(%rdx), %eax
	movl	%eax, -40(%rsp)
	movl	%ecx, %eax
	salq	$3, %rax
	movq	%rax, -56(%rsp)
	movl	%ecx, %eax
	subl	%edx, %eax
	movl	%edx, -36(%rsp)
	movl	%eax, -44(%rsp)
	leaq	0(,%rbx,8), %r13
	movq	%rsi, %r9
	movq	$-1, %r10
	movl	$1, %r11d
	movl	$2, %r8d
	movq	%rbx, %r14
	movq	%r13, %r12
	.p2align 4,,10
	.p2align 3
.L233:
	vmovsd	-16(%rdi,%r8,8), %xmm2
	movslq	%r11d, %rdx
	cmpl	%r8d, %ecx
	jl	.L234
	movq	%r8, %rax
	vmovsd	%xmm2, %xmm2, %xmm1
	.p2align 4,,10
	.p2align 3
.L237:
	vmovsd	-8(%rdi,%rax,8), %xmm0
	vcomisd	%xmm1, %xmm0
	jb	.L235
	vmovsd	%xmm0, %xmm0, %xmm1
	movslq	%eax, %rdx
.L235:
	incq	%rax
	cmpl	%eax, %ecx
	jge	.L237
	cmpl	%r11d, %edx
	jne	.L254
	.p2align 4,,10
	.p2align 3
.L234:
	incq	%r8
	incq	%r11
	addq	%r12, %r9
	addq	%r14, %r10
	cmpq	%r8, -8(%rsp)
	jne	.L233
	vzeroupper
.L252:
	leaq	-40(%rbp), %rsp
	popq	%rbx
	popq	%r12
	popq	%r13
	popq	%r14
	popq	%r15
	popq	%rbp
	.cfi_remember_state
	.cfi_def_cfa 7, 8
	ret
	.p2align 4,,10
	.p2align 3
.L254:
	.cfi_restore_state
	leal	-1(%rdx), %eax
	cltq
	imulq	%r14, %rdx
	vmovsd	%xmm2, (%rdi,%rax,8)
	movq	-32(%rsp), %rax
	vmovsd	%xmm1, -16(%rdi,%r8,8)
	addq	%rdx, %rax
	movl	$3, %edx
	subq	%r10, %rdx
	addq	%rax, %rdx
	cmpq	$6, %rdx
	jbe	.L238
	cmpl	$2, -24(%rsp)
	jbe	.L246
	leaq	1(%rax), %rbx
	movq	%rbx, -16(%rsp)
	xorl	%edx, %edx
	leaq	(%rsi,%rbx,8), %rbx
	.p2align 4,,10
	.p2align 3
.L240:
	vmovupd	(%r9,%rdx), %ymm0
	vmovupd	(%rbx,%rdx), %ymm3
	vmovupd	%ymm3, (%r9,%rdx)
	vmovupd	%ymm0, (%rbx,%rdx)
	addq	$32, %rdx
	cmpq	%r15, %rdx
	jne	.L240
	movl	-36(%rsp), %ebx
	cmpl	%ebx, %ecx
	je	.L234
	movl	-44(%rsp), %edx
	cmpl	$1, %edx
	movl	%edx, -20(%rsp)
	movl	-40(%rsp), %edx
	je	.L242
.L239:
	leaq	1(%r10,%rbx), %r13
	addq	-16(%rsp), %rbx
	leaq	(%rsi,%rbx,8), %rbx
	vmovupd	(%rbx), %xmm4
	leaq	(%rsi,%r13,8), %r13
	vmovupd	0(%r13), %xmm0
	vmovupd	%xmm4, 0(%r13)
	movl	-20(%rsp), %r13d
	vmovupd	%xmm0, (%rbx)
	movl	%r13d, %ebx
	andl	$-2, %ebx
	addl	%ebx, %edx
	cmpl	%ebx, %r13d
	je	.L234
.L242:
	movslq	%edx, %rdx
	leaq	(%r10,%rdx), %rbx
	addq	%rax, %rdx
	vmovsd	(%rsi,%rbx,8), %xmm0
	vmovsd	(%rsi,%rdx,8), %xmm1
	vmovsd	%xmm1, (%rsi,%rbx,8)
	vmovsd	%xmm0, (%rsi,%rdx,8)
	jmp	.L234
.L238:
	movq	-56(%rsp), %rbx
	movq	%r9, %rdx
	addq	%r9, %rbx
	subq	%r10, %rax
	.p2align 4,,10
	.p2align 3
.L245:
	vmovsd	(%rdx), %xmm0
	vmovsd	(%rdx,%rax,8), %xmm1
	vmovsd	%xmm1, (%rdx)
	vmovsd	%xmm0, (%rdx,%rax,8)
	addq	$8, %rdx
	cmpq	%rdx, %rbx
	jne	.L245
	jmp	.L234
.L246:
	leaq	1(%rax), %r13
	movl	%ecx, -20(%rsp)
	movq	%r13, -16(%rsp)
	xorl	%ebx, %ebx
	movl	$1, %edx
	jmp	.L239
	.cfi_endproc
.LFE14:
	.size	eigsrt_, .-eigsrt_
	.section	.rodata.str1.1
.LC73:
	.string	"too many iterations in jacobi"
	.text
	.p2align 4
	.globl	jacobi_
	.type	jacobi_, @function
jacobi_:
.LFB15:
	.cfi_startproc
	pushq	%rbp
	.cfi_def_cfa_offset 16
	.cfi_offset 6, -16
	movq	%r8, %r11
	movq	%rsp, %rbp
	.cfi_def_cfa_register 6
	pushq	%r15
	.cfi_offset 15, -24
	movq	%rdi, %r15
	pushq	%r14
	pushq	%r13
	pushq	%r12
	pushq	%rbx
	andq	$-32, %rsp
	subq	$8832, %rsp
	.cfi_offset 14, -32
	.cfi_offset 13, -40
	.cfi_offset 12, -48
	.cfi_offset 3, -56
	movq	%rcx, 232(%rsp)
	movq	%r9, 128(%rsp)
	movslq	(%rdx), %r14
	movq	%fs:40, %rax
	movq	%rax, 8824(%rsp)
	xorl	%eax, %eax
	movl	$0, %eax
	testq	%r14, %r14
	movl	%r14d, 208(%rsp)
	cmovs	%rax, %r14
	movl	(%rsi), %eax
	movq	%r14, %r13
	movl	%eax, 252(%rsp)
	notq	%r13
	testl	%eax, %eax
	jle	.L403
	leaq	1(%r14), %rbx
	leaq	0(,%rbx,8), %r10
	leal	1(%rax), %r12d
	vmovsd	.LC8(%rip), %xmm0
	leaq	-8(%r8), %r9
	movq	%r12, %rcx
	leaq	-8(%r10), %rsi
	movl	$1, %edi
.L259:
	movq	%r8, %rdx
	movl	$1, %eax
	.p2align 4,,10
	.p2align 3
.L258:
	incl	%eax
	movq	$0x000000000, (%rdx)
	addq	%rsi, %rdx
	cmpl	%ecx, %eax
	jne	.L258
	incq	%rdi
	vmovsd	%xmm0, 8(%r9)
	addq	$8, %r8
	addq	%r10, %r9
	cmpq	%rdi, %r12
	jne	.L259
	movl	252(%rsp), %eax
	cmpl	$1, %eax
	je	.L336
	leaq	800(%rsp), %rdi
	shrl	%eax
	movq	%rdi, 72(%rsp)
	movl	%eax, %ecx
	movq	232(%rsp), %rsi
	salq	$4, %rbx
	movq	%r15, %rdx
	salq	$4, %rcx
	xorl	%eax, %eax
.L261:
	vmovsd	(%rdx), %xmm0
	vmovhpd	(%rdx,%r10), %xmm0, %xmm0
	vmovapd	%xmm0, (%rdi,%rax)
	vmovupd	%xmm0, (%rsi,%rax)
	addq	$16, %rax
	addq	%rbx, %rdx
	cmpq	%rcx, %rax
	jne	.L261
	movl	252(%rsp), %ebx
	movl	%ebx, %eax
	orl	$1, %eax
	andl	$1, %ebx
	je	.L262
.L260:
	movslq	%eax, %rdx
	movq	%r14, %rcx
	imulq	%rdx, %rcx
	addq	%r13, %rdx
	movq	232(%rsp), %rbx
	addq	%rcx, %rdx
	vmovsd	(%r15,%rdx,8), %xmm0
	decl	%eax
	cltq
	vmovsd	%xmm0, 800(%rsp,%rax,8)
	vmovsd	%xmm0, (%rbx,%rax,8)
.L262:
	movl	252(%rsp), %edx
	leaq	4800(%rsp), %rax
	salq	$3, %rdx
	xorl	%esi, %esi
	movq	%rax, %rdi
	movq	%r11, 264(%rsp)
	movq	%rax, 48(%rsp)
	call	memset@PLT
	movq	264(%rsp), %r11
.L263:
	movl	252(%rsp), %edi
	movq	128(%rsp), %rax
	vxorps	%xmm0, %xmm0, %xmm0
	movl	$0, (%rax)
	movl	%edi, %eax
	imull	%edi, %eax
	vmovsd	.LC70(%rip), %xmm10
	movq	232(%rsp), %rsi
	vcvtsi2sdl	%eax, %xmm0, %xmm0
	movq	%r14, %rax
	salq	$5, %rax
	movq	%rax, 112(%rsp)
	movq	%r14, %rax
	salq	$4, %rax
	movq	%rax, 160(%rsp)
	vdivsd	%xmm0, %xmm10, %xmm10
	leal	-1(%rdi), %eax
	movl	%eax, 156(%rsp)
	movl	%edi, %eax
	shrl	$2, %eax
	salq	$5, %rax
	movq	%rax, 120(%rsp)
	movl	%edi, %eax
	andl	$-4, %eax
	movl	%eax, 152(%rsp)
	incl	%eax
	movl	%eax, 108(%rsp)
	movq	%rsi, %rax
	shrq	$3, %rax
	negq	%rax
	movl	%eax, %edx
	andl	$3, %edx
	leal	3(%rdx), %ecx
	movl	$5, %eax
	cmpl	%eax, %ecx
	cmovnb	%ecx, %eax
	movq	72(%rsp), %rcx
	movl	%eax, 60(%rsp)
	movl	%edx, %eax
	salq	$3, %rax
	addq	%rax, %rcx
	movq	%rcx, 24(%rsp)
	movq	48(%rsp), %rcx
	subl	%edx, %edi
	addq	%rax, %rcx
	addq	%rsi, %rax
	movq	%rax, 40(%rsp)
	movl	%edi, %eax
	movl	%edi, 16(%rsp)
	shrl	$2, %eax
	andl	$-4, %edi
	movl	%edx, 56(%rsp)
	salq	$5, %rax
	orl	%edi, %edx
	movq	%rcx, 32(%rsp)
	movq	%rax, 8(%rsp)
	movl	%edi, 20(%rsp)
	movl	%edx, 4(%rsp)
	movl	$1, 220(%rsp)
	movq	%r14, 264(%rsp)
	movq	%r11, 64(%rsp)
	leaq	0(,%r14,8), %rbx
	vmovq	.LC69(%rip), %xmm3
	vmovsd	.LC71(%rip), %xmm4
	vmovsd	.LC72(%rip), %xmm9
	vmovq	.LC11(%rip), %xmm8
	movq	%r13, 256(%rsp)
	vxorpd	%xmm7, %xmm7, %xmm7
	movq	%rbx, %r13
	movq	%r15, %rbx
.L257:
	cmpl	$1, 252(%rsp)
	jle	.L255
	movl	$2, %esi
	vmovsd	%xmm7, %xmm7, %xmm1
	movl	$2, %edx
	movl	$1, %ecx
	.p2align 4,,10
	.p2align 3
.L265:
	movslq	%edx, %rax
	imulq	264(%rsp), %rax
	incl	%edx
	addq	256(%rsp), %rax
	addq	%rcx, %rax
	vmovsd	(%rbx,%rax,8), %xmm0
	vandpd	%xmm3, %xmm0, %xmm0
	vaddsd	%xmm0, %xmm1, %xmm1
	cmpl	%edx, 252(%rsp)
	jge	.L265
	cmpl	252(%rsp), %esi
	jge	.L266
	leal	1(%rsi), %edx
	cmpl	%edx, 252(%rsp)
	jl	.L266
	movslq	%esi, %rcx
	movl	%edx, %esi
	jmp	.L265
.L266:
	vcomisd	%xmm7, %xmm1
	je	.L255
	cmpl	$3, 220(%rsp)
	vmovsd	%xmm7, %xmm7, %xmm5
	jle	.L404
.L272:
	leaq	16(%rbx), %rax
	movq	%rax, 88(%rsp)
	leaq	8(%rbx), %rax
	movq	%rax, 80(%rsp)
	movl	252(%rsp), %eax
	movq	64(%rsp), %r12
	incl	%eax
	movl	%eax, 104(%rsp)
	leaq	16(%r12), %rax
	movl	$1, 212(%rsp)
	movl	$2, 216(%rsp)
	movl	$0, 248(%rsp)
	movq	%rax, 96(%rsp)
	vmovsd	.LC8(%rip), %xmm6
	movl	$2, %edi
	movl	$1, %r14d
	jmp	.L273
	.p2align 4,,10
	.p2align 3
.L406:
	vandpd	%xmm3, %xmm11, %xmm1
	vaddsd	%xmm1, %xmm0, %xmm13
	vcomisd	%xmm1, %xmm13
	jne	.L277
	movq	$0x000000000, (%rbx,%r8,8)
.L280:
	cmpl	%r15d, 252(%rsp)
	jl	.L405
.L275:
	movl	%r15d, %edi
.L273:
	movq	264(%rsp), %rax
	movslq	%edi, %rdx
	imulq	%rdx, %rax
	movq	232(%rsp), %r11
	movslq	248(%rsp), %rcx
	movq	%rax, 224(%rsp)
	addq	256(%rsp), %rax
	leaq	(%rax,%r14), %r8
	vmovsd	(%rbx,%r8,8), %xmm2
	vmovsd	(%r11,%rcx,8), %xmm12
	vandpd	%xmm3, %xmm2, %xmm14
	leal	-1(%rdi), %esi
	leaq	(%r11,%rdx,8), %r9
	cmpl	$4, 220(%rsp)
	vmulsd	%xmm4, %xmm14, %xmm0
	vmovsd	-8(%r9), %xmm11
	movslq	%esi, %r10
	vandpd	%xmm3, %xmm12, %xmm13
	leal	1(%rdi), %r15d
	jle	.L277
	vaddsd	%xmm13, %xmm0, %xmm1
	vcomisd	%xmm13, %xmm1
	je	.L406
.L277:
	vcomisd	%xmm5, %xmm14
	jbe	.L280
	vsubsd	%xmm12, %xmm11, %xmm11
	vandpd	%xmm3, %xmm11, %xmm1
	vaddsd	%xmm1, %xmm0, %xmm0
	vcomisd	%xmm1, %xmm0
	jne	.L396
	vdivsd	%xmm11, %xmm2, %xmm11
	vmovsd	%xmm6, %xmm6, %xmm13
.L284:
	vmovsd	%xmm11, %xmm11, %xmm0
	vfmadd132sd	%xmm11, %xmm13, %xmm0
	vfnmadd231sd	%xmm11, %xmm2, %xmm12
	movq	$0x000000000, (%rbx,%r8,8)
	vsqrtsd	%xmm0, %xmm0, %xmm0
	vdivsd	%xmm0, %xmm13, %xmm0
	vmulsd	%xmm0, %xmm11, %xmm1
	vaddsd	%xmm13, %xmm0, %xmm0
	vmovsd	%xmm2, %xmm2, %xmm13
	vfnmadd213sd	4800(%rsp,%rcx,8), %xmm11, %xmm13
	vdivsd	%xmm0, %xmm1, %xmm0
	vmovsd	%xmm13, 4800(%rsp,%rcx,8)
	vmovsd	%xmm2, %xmm2, %xmm13
	vfmadd213sd	4800(%rsp,%r10,8), %xmm11, %xmm13
	vmovsd	%xmm13, 4800(%rsp,%r10,8)
	movq	232(%rsp), %r10
	vmovsd	%xmm12, (%r10,%rcx,8)
	movq	264(%rsp), %rcx
	vfmadd213sd	-8(%r9), %xmm11, %xmm2
	imulq	%r14, %rcx
	movq	256(%rsp), %r10
	addq	%rcx, %r10
	cmpl	$1, 212(%rsp)
	movq	%rcx, 168(%rsp)
	movq	%r10, 240(%rsp)
	vmovsd	%xmm2, -8(%r9)
	je	.L407
	leaq	3(%r10), %rcx
	movq	%rcx, 192(%rsp)
	subq	%rax, %rcx
	cmpq	$6, %rcx
	jbe	.L290
	movl	212(%rsp), %ecx
	cmpl	$2, %ecx
	je	.L290
	subl	$2, %ecx
	cmpl	$2, %ecx
	jbe	.L291
	leaq	1(%rax), %rcx
	movq	%rcx, 200(%rsp)
	leaq	(%rbx,%rcx,8), %r8
	movl	248(%rsp), %ecx
	leaq	1(%r10), %r9
	shrl	$2, %ecx
	salq	$5, %rcx
	movq	%rcx, %r10
	leaq	(%rbx,%r9,8), %r11
	vbroadcastsd	%xmm0, %ymm13
	vbroadcastsd	%xmm1, %ymm12
	xorl	%ecx, %ecx
	.p2align 4,,10
	.p2align 3
.L293:
	vmovupd	(%r11,%rcx), %ymm2
	vmovupd	(%r8,%rcx), %ymm11
	vmovapd	%ymm2, %ymm14
	vfmadd132pd	%ymm13, %ymm11, %ymm14
	vfnmadd132pd	%ymm12, %ymm2, %ymm14
	vfnmadd231pd	%ymm13, %ymm11, %ymm2
	vmovupd	%ymm14, (%r11,%rcx)
	vfmadd132pd	%ymm12, %ymm11, %ymm2
	vmovupd	%ymm2, (%r8,%rcx)
	addq	$32, %rcx
	cmpq	%rcx, %r10
	jne	.L293
	movl	248(%rsp), %r10d
	movl	%r10d, %r8d
	andl	$-4, %r8d
	leal	1(%r8), %ecx
	cmpl	%r8d, %r10d
	je	.L294
	movl	212(%rsp), %r10d
	subl	%r8d, %r10d
	leal	-1(%r10), %r11d
	cmpl	$2, %r10d
	je	.L296
.L334:
	addq	%r8, %r9
	leaq	(%rbx,%r9,8), %r9
	addq	200(%rsp), %r8
	vmovupd	(%r9), %xmm13
	leaq	(%rbx,%r8,8), %r8
	vmovupd	(%r8), %xmm12
	vmovddup	%xmm0, %xmm2
	vmovapd	%xmm13, %xmm14
	vfmadd132pd	%xmm2, %xmm12, %xmm14
	vfnmadd132pd	%xmm12, %xmm13, %xmm2
	vmovddup	%xmm1, %xmm11
	vfnmadd132pd	%xmm11, %xmm13, %xmm14
	vfmadd132pd	%xmm11, %xmm12, %xmm2
	vmovupd	%xmm14, (%r9)
	vmovupd	%xmm2, (%r8)
	movl	%r11d, %r8d
	andl	$-2, %r8d
	addl	%r8d, %ecx
	cmpl	%r11d, %r8d
	je	.L294
.L296:
	movq	240(%rsp), %r10
	movslq	%ecx, %rcx
	leaq	(%r10,%rcx), %r8
	addq	%rax, %rcx
	vmovsd	(%rbx,%r8,8), %xmm2
	vmovsd	(%rbx,%rcx,8), %xmm11
	vmovsd	%xmm0, %xmm0, %xmm12
	vfmadd132sd	%xmm2, %xmm11, %xmm12
	vfnmadd132sd	%xmm1, %xmm2, %xmm12
	vfnmadd231sd	%xmm11, %xmm0, %xmm2
	vmovsd	%xmm12, (%rbx,%r8,8)
	vfmadd132sd	%xmm1, %xmm11, %xmm2
	vmovsd	%xmm2, (%rbx,%rcx,8)
.L294:
	cmpl	%edi, 216(%rsp)
	jge	.L304
	movslq	216(%rsp), %r10
	movq	264(%rsp), %rcx
	leaq	(%rax,%r10), %r11
	movl	%edi, %r8d
	subl	%r10d, %r8d
	movq	%r11, 200(%rsp)
	salq	$3, %r11
	imulq	%r10, %rcx
	movq	%r11, 176(%rsp)
	movl	%r8d, %r9d
	movq	264(%rsp), %r11
	decq	%r9
	movq	%r10, 136(%rsp)
	movq	256(%rsp), %r10
	imulq	%r9, %r11
	addq	%rcx, %r10
	addq	%r14, %r10
	addq	%r10, %r11
	movq	%rcx, 144(%rsp)
	leaq	0(,%r10,8), %rcx
	movq	%rcx, 184(%rsp)
	leaq	0(,%r11,8), %rcx
	movq	176(%rsp), %r11
	cmpq	%r11, %rcx
	setl	176(%rsp)
	addq	200(%rsp), %r9
	salq	$3, %r9
	cmpq	184(%rsp), %r9
	movzbl	176(%rsp), %ecx
	setl	%r9b
	orb	%r9b, %cl
	je	.L300
	movl	208(%rsp), %r9d
	cmpl	$1, %r8d
	setne	184(%rsp)
	movzbl	184(%rsp), %ecx
	testl	%r9d, %r9d
	setg	%r9b
	testb	%r9b, %cl
	je	.L300
	leal	-1(%r8), %esi
	cmpl	$2, %esi
	jbe	.L338
	movq	%r11, %rcx
	movl	%r8d, %r11d
	movq	160(%rsp), %r9
	leaq	0(,%r10,8), %rsi
	shrl	$2, %r11d
	movq	%rdx, 184(%rsp)
	addq	%rbx, %rsi
	addq	%rbx, %rcx
	salq	$5, %r11
	movq	112(%rsp), %rdx
	vbroadcastsd	%xmm0, %ymm13
	vbroadcastsd	%xmm1, %ymm12
	addq	%rsi, %r9
	addq	%rcx, %r11
	.p2align 4,,10
	.p2align 3
.L303:
	vmovsd	(%r9), %xmm2
	vmovupd	(%rcx), %ymm14
	vmovhpd	(%r9,%r13), %xmm2, %xmm11
	vmovsd	(%rsi), %xmm2
	addq	$32, %rcx
	vmovhpd	(%rsi,%r13), %xmm2, %xmm2
	vinsertf128	$0x1, %xmm11, %ymm2, %ymm2
	vmovapd	%ymm2, %ymm11
	vfmadd132pd	%ymm13, %ymm14, %ymm11
	vfnmadd132pd	%ymm12, %ymm2, %ymm11
	vfnmadd231pd	%ymm13, %ymm14, %ymm2
	vmovlpd	%xmm11, (%rsi)
	vfmadd132pd	%ymm12, %ymm14, %ymm2
	vmovhpd	%xmm11, (%rsi,%r13)
	vextractf128	$0x1, %ymm11, %xmm11
	vmovlpd	%xmm11, (%r9)
	vmovhpd	%xmm11, (%r9,%r13)
	addq	%rdx, %rsi
	vmovupd	%ymm2, -32(%rcx)
	addq	%rdx, %r9
	cmpq	%r11, %rcx
	jne	.L303
	movl	216(%rsp), %ecx
	movl	%r8d, %esi
	andl	$-4, %esi
	movq	184(%rsp), %rdx
	addl	%esi, %ecx
	cmpl	%esi, %r8d
	je	.L304
	subl	%esi, %r8d
	cmpl	$1, %r8d
	je	.L306
.L301:
	movq	264(%rsp), %r9
	vmovddup	%xmm0, %xmm11
	imulq	%rsi, %r9
	addq	200(%rsp), %rsi
	leaq	(%rbx,%rsi,8), %rsi
	addq	%r10, %r9
	leaq	(%rbx,%r9,8), %r9
	vmovsd	(%r9), %xmm14
	vmovupd	(%rsi), %xmm13
	vmovhpd	(%r9,%r13), %xmm14, %xmm14
	vmovapd	%xmm14, %xmm12
	vfmadd132pd	%xmm11, %xmm13, %xmm12
	vfnmadd132pd	%xmm13, %xmm14, %xmm11
	vmovddup	%xmm1, %xmm2
	vfnmadd132pd	%xmm2, %xmm14, %xmm12
	vfmadd132pd	%xmm11, %xmm13, %xmm2
	vmovlpd	%xmm12, (%r9)
	vmovhpd	%xmm12, (%r9,%r13)
	vmovupd	%xmm2, (%rsi)
	movl	%r8d, %esi
	andl	$-2, %esi
	addl	%esi, %ecx
	cmpl	%esi, %r8d
	je	.L304
.L306:
	movq	264(%rsp), %rsi
	movslq	%ecx, %rcx
	imulq	%rcx, %rsi
	addq	%rax, %rcx
	vmovsd	(%rbx,%rcx,8), %xmm11
	addq	256(%rsp), %rsi
	addq	%r14, %rsi
	vmovsd	(%rbx,%rsi,8), %xmm2
	vmovsd	%xmm0, %xmm0, %xmm12
	vfmadd132sd	%xmm2, %xmm11, %xmm12
	vfnmadd132sd	%xmm1, %xmm2, %xmm12
	vfnmadd231sd	%xmm11, %xmm0, %xmm2
	vmovsd	%xmm12, (%rbx,%rsi,8)
	vfmadd132sd	%xmm1, %xmm11, %xmm2
	vmovsd	%xmm2, (%rbx,%rcx,8)
.L304:
	cmpl	%r15d, 252(%rsp)
	jl	.L288
	movl	252(%rsp), %r8d
	movq	264(%rsp), %r11
	movq	224(%rsp), %r9
	subl	%edi, %r8d
	movq	256(%rsp), %rdi
	addq	%r11, %r9
	addq	%r9, %rdi
	leaq	(%r14,%rdi), %r10
	leaq	0(,%r10,8), %rsi
	addq	%rdx, %rdi
	addq	%r11, %r10
	leaq	0(,%rdi,8), %rcx
	salq	$3, %r10
	cmpq	%r10, %rcx
	setg	%r10b
	addq	%r11, %rdi
	salq	$3, %rdi
	cmpq	%rsi, %rdi
	setl	%dil
	orb	%dil, %r10b
	je	.L312
	leal	-1(%r8), %edi
	cmpl	$3, %edi
	movl	208(%rsp), %edi
	seta	%r10b
	testl	%edi, %edi
	setg	%dil
	testb	%dil, %r10b
	je	.L312
	movl	%r8d, %edi
	movq	160(%rsp), %r10
	shrl	%edi
	vmovddup	%xmm0, %xmm13
	vmovddup	%xmm1, %xmm12
	addq	%rbx, %rsi
	addq	%rbx, %rcx
	xorl	%r9d, %r9d
	.p2align 4,,10
	.p2align 3
.L313:
	vmovsd	(%rsi), %xmm2
	vmovsd	(%rcx), %xmm11
	vmovhpd	(%rsi,%r13), %xmm2, %xmm2
	vmovhpd	(%rcx,%r13), %xmm11, %xmm11
	vmovapd	%xmm2, %xmm14
	vfmadd132pd	%xmm13, %xmm11, %xmm14
	incl	%r9d
	vfnmadd132pd	%xmm12, %xmm2, %xmm14
	vfnmadd231pd	%xmm13, %xmm11, %xmm2
	vmovlpd	%xmm14, (%rsi)
	vfmadd132pd	%xmm12, %xmm11, %xmm2
	vmovhpd	%xmm14, (%rsi,%r13)
	addq	%r10, %rsi
	vmovlpd	%xmm2, (%rcx)
	vmovhpd	%xmm2, (%rcx,%r13)
	addq	%r10, %rcx
	cmpl	%r9d, %edi
	jne	.L313
	movl	%r8d, %esi
	andl	$-2, %esi
	leal	(%rsi,%r15), %ecx
	cmpl	%esi, %r8d
	je	.L288
	movslq	%ecx, %rcx
	imulq	264(%rsp), %rcx
	vmovsd	%xmm0, %xmm0, %xmm12
	addq	256(%rsp), %rcx
	leaq	(%r14,%rcx), %rsi
	addq	%rdx, %rcx
	vmovsd	(%rbx,%rsi,8), %xmm2
	vmovsd	(%rbx,%rcx,8), %xmm11
	vfmadd132sd	%xmm2, %xmm11, %xmm12
	vfnmadd132sd	%xmm1, %xmm2, %xmm12
	vfnmadd231sd	%xmm11, %xmm0, %xmm2
	vmovsd	%xmm12, (%rbx,%rsi,8)
	vfmadd132sd	%xmm1, %xmm11, %xmm2
	vmovsd	%xmm2, (%rbx,%rcx,8)
.L288:
	movq	192(%rsp), %rdx
	subq	%rax, %rdx
	cmpq	$6, %rdx
	jbe	.L408
	cmpl	$2, 156(%rsp)
	jbe	.L339
	movq	240(%rsp), %rdi
	leaq	8(%r12,%rax,8), %rcx
	leaq	8(%r12,%rdi,8), %rsi
	movq	120(%rsp), %rdi
	vbroadcastsd	%xmm0, %ymm13
	vbroadcastsd	%xmm1, %ymm12
	xorl	%edx, %edx
	.p2align 4,,10
	.p2align 3
.L324:
	vmovupd	(%rsi,%rdx), %ymm2
	vmovupd	(%rcx,%rdx), %ymm11
	vmovapd	%ymm13, %ymm14
	vfmadd132pd	%ymm2, %ymm11, %ymm14
	vfnmadd132pd	%ymm12, %ymm2, %ymm14
	vfnmadd231pd	%ymm11, %ymm13, %ymm2
	vmovupd	%ymm14, (%rsi,%rdx)
	vfmadd132pd	%ymm12, %ymm11, %ymm2
	vmovupd	%ymm2, (%rcx,%rdx)
	addq	$32, %rdx
	cmpq	%rdi, %rdx
	jne	.L324
	movl	152(%rsp), %edi
	cmpl	%edi, 252(%rsp)
	je	.L320
	movl	108(%rsp), %edx
	movl	%edi, %ecx
.L322:
	movl	252(%rsp), %esi
	subl	%ecx, %esi
	cmpl	$1, %esi
	je	.L318
	movq	240(%rsp), %rdi
	vmovddup	%xmm0, %xmm2
	leaq	1(%rcx,%rdi), %rdi
	leaq	1(%rax,%rcx), %rcx
	leaq	(%r12,%rcx,8), %rcx
	leaq	(%r12,%rdi,8), %rdi
	vmovupd	(%rcx), %xmm14
	vmovupd	(%rdi), %xmm15
	vmovapd	%xmm2, %xmm11
	vfmadd132pd	%xmm15, %xmm14, %xmm11
	vfnmadd132pd	%xmm14, %xmm15, %xmm2
	vmovddup	%xmm1, %xmm13
	vfnmadd132pd	%xmm13, %xmm15, %xmm11
	vfmadd132pd	%xmm13, %xmm14, %xmm2
	vmovupd	%xmm11, (%rdi)
	vmovupd	%xmm2, (%rcx)
	movl	%esi, %ecx
	andl	$-2, %ecx
	addl	%ecx, %edx
	cmpl	%esi, %ecx
	je	.L320
.L318:
	movq	240(%rsp), %rcx
	movslq	%edx, %rdx
	addq	%rdx, %rcx
	addq	%rax, %rdx
	vmovsd	(%r12,%rcx,8), %xmm2
	vmovsd	(%r12,%rdx,8), %xmm11
	vmovsd	%xmm0, %xmm0, %xmm12
	vfmadd132sd	%xmm2, %xmm11, %xmm12
	vfnmadd132sd	%xmm11, %xmm2, %xmm0
	vfnmadd132sd	%xmm1, %xmm2, %xmm12
	vfmadd132sd	%xmm1, %xmm11, %xmm0
	vmovsd	%xmm12, (%r12,%rcx,8)
	vmovsd	%xmm0, (%r12,%rdx,8)
.L320:
	movq	128(%rsp), %rax
	incl	(%rax)
	cmpl	%r15d, 252(%rsp)
	jge	.L275
.L405:
	movl	252(%rsp), %edi
	cmpl	%edi, 216(%rsp)
	jge	.L274
	movl	216(%rsp), %eax
	leal	1(%rax), %r15d
	cmpl	%r15d, 252(%rsp)
	jl	.L274
	movl	%eax, 212(%rsp)
	movslq	%eax, %r14
	decl	%eax
	movl	%r15d, 216(%rsp)
	movl	%eax, 248(%rsp)
	jmp	.L275
	.p2align 4,,10
	.p2align 3
.L396:
	vmulsd	%xmm9, %xmm11, %xmm11
	vmovsd	%xmm6, %xmm6, %xmm13
	vdivsd	%xmm2, %xmm11, %xmm1
	vmovsd	%xmm1, %xmm1, %xmm0
	vfmadd132sd	%xmm1, %xmm6, %xmm0
	vandpd	%xmm3, %xmm1, %xmm11
	vcmpltsd	%xmm7, %xmm1, %xmm1
	vsqrtsd	%xmm0, %xmm0, %xmm0
	vaddsd	%xmm0, %xmm11, %xmm11
	vdivsd	%xmm11, %xmm6, %xmm11
	vmovsd	%xmm11, %xmm11, %xmm0
	vxorpd	%xmm8, %xmm11, %xmm11
	vblendvpd	%xmm1, %xmm11, %xmm0, %xmm11
	jmp	.L284
	.p2align 4,,10
	.p2align 3
.L408:
	movq	240(%rsp), %rdi
	movl	156(%rsp), %edx
	movq	224(%rsp), %rcx
	addq	%rdi, %rdx
	leaq	8(%r12,%rdi,8), %rax
	movq	96(%rsp), %rdi
	subq	168(%rsp), %rcx
	leaq	(%rdi,%rdx,8), %rdx
	.p2align 4,,10
	.p2align 3
.L321:
	vmovsd	(%rax), %xmm2
	vmovsd	(%rax,%rcx,8), %xmm11
	vmovsd	%xmm0, %xmm0, %xmm12
	vfmadd132sd	%xmm2, %xmm11, %xmm12
	vfnmadd132sd	%xmm1, %xmm2, %xmm12
	vfnmadd231sd	%xmm11, %xmm0, %xmm2
	vmovsd	%xmm12, (%rax)
	vfmadd132sd	%xmm1, %xmm11, %xmm2
	vmovsd	%xmm2, (%rax,%rcx,8)
	addq	$8, %rax
	cmpq	%rdx, %rax
	jne	.L321
	jmp	.L320
	.p2align 4,,10
	.p2align 3
.L312:
	movq	256(%rsp), %rdi
	movl	%r15d, %esi
	leaq	(%rdi,%r14), %rcx
	addq	%r9, %rcx
	movl	104(%rsp), %edi
	leaq	(%rbx,%rcx,8), %rcx
	subq	%r14, %rdx
	.p2align 4,,10
	.p2align 3
.L316:
	vmovsd	(%rcx), %xmm2
	vmovsd	(%rcx,%rdx,8), %xmm11
	vmovsd	%xmm0, %xmm0, %xmm12
	vfmadd132sd	%xmm2, %xmm11, %xmm12
	incl	%esi
	vfnmadd132sd	%xmm1, %xmm2, %xmm12
	vfnmadd231sd	%xmm11, %xmm0, %xmm2
	vmovsd	%xmm12, (%rcx)
	vfmadd132sd	%xmm1, %xmm11, %xmm2
	vmovsd	%xmm2, (%rcx,%rdx,8)
	addq	%r13, %rcx
	cmpl	%edi, %esi
	jne	.L316
	jmp	.L288
	.p2align 4,,10
	.p2align 3
.L300:
	movq	256(%rsp), %rcx
	movq	136(%rsp), %r11
	movq	80(%rsp), %r10
	addq	%rax, %r11
	addq	%r14, %rcx
	subl	216(%rsp), %esi
	addq	144(%rsp), %rcx
	addq	%r11, %rsi
	leaq	(%rbx,%rcx,8), %r8
	leaq	(%r10,%rsi,8), %rsi
	leaq	(%rbx,%r11,8), %rcx
	.p2align 4,,10
	.p2align 3
.L309:
	vmovsd	(%r8), %xmm2
	vmovsd	(%rcx), %xmm11
	vmovsd	%xmm0, %xmm0, %xmm12
	vfmadd132sd	%xmm2, %xmm11, %xmm12
	addq	$8, %rcx
	vfnmadd132sd	%xmm1, %xmm2, %xmm12
	vfnmadd231sd	%xmm11, %xmm0, %xmm2
	vmovsd	%xmm12, (%r8)
	vfmadd132sd	%xmm1, %xmm11, %xmm2
	addq	%r13, %r8
	vmovsd	%xmm2, -8(%rcx)
	cmpq	%rsi, %rcx
	jne	.L309
	jmp	.L304
	.p2align 4,,10
	.p2align 3
.L290:
	movl	212(%rsp), %r8d
	movq	240(%rsp), %r10
	subl	$2, %r8d
	addq	%r10, %r8
	leaq	8(%rbx,%r10,8), %rcx
	movq	88(%rsp), %r10
	leaq	(%r10,%r8,8), %r9
	movq	224(%rsp), %r8
	subq	168(%rsp), %r8
	.p2align 4,,10
	.p2align 3
.L299:
	vmovsd	(%rcx), %xmm2
	vmovsd	(%rcx,%r8,8), %xmm11
	vmovsd	%xmm0, %xmm0, %xmm12
	vfmadd132sd	%xmm2, %xmm11, %xmm12
	vfnmadd132sd	%xmm1, %xmm2, %xmm12
	vfnmadd231sd	%xmm11, %xmm0, %xmm2
	vmovsd	%xmm12, (%rcx)
	vfmadd132sd	%xmm1, %xmm11, %xmm2
	vmovsd	%xmm2, (%rcx,%r8,8)
	addq	$8, %rcx
	cmpq	%rcx, %r9
	jne	.L299
	jmp	.L294
	.p2align 4,,10
	.p2align 3
.L407:
	movq	%r10, %rcx
	addq	$3, %rcx
	movq	%rcx, 192(%rsp)
	jmp	.L294
.L339:
	xorl	%ecx, %ecx
	movl	$1, %edx
	jmp	.L322
.L291:
	leaq	1(%r10), %r9
	leaq	1(%rax), %r10
	movq	%r10, 200(%rsp)
	movl	248(%rsp), %r11d
	xorl	%r8d, %r8d
	movl	$1, %ecx
	jmp	.L334
.L338:
	movl	216(%rsp), %ecx
	xorl	%esi, %esi
	jmp	.L301
.L274:
	movl	60(%rsp), %edi
	cmpl	%edi, 156(%rsp)
	jb	.L340
	movl	56(%rsp), %eax
	movl	$1, %esi
	testl	%eax, %eax
	je	.L327
	vmovsd	800(%rsp), %xmm0
	movq	232(%rsp), %rdi
	vaddsd	4800(%rsp), %xmm0, %xmm0
	movl	$2, %esi
	movq	$0x000000000, 4800(%rsp)
	vmovsd	%xmm0, 800(%rsp)
	vmovsd	%xmm0, (%rdi)
	cmpl	$1, %eax
	je	.L327
	vmovsd	808(%rsp), %xmm0
	movl	$3, %esi
	vaddsd	4808(%rsp), %xmm0, %xmm0
	movq	$0x000000000, 4808(%rsp)
	vmovsd	%xmm0, 808(%rsp)
	vmovsd	%xmm0, 8(%rdi)
	cmpl	$2, %eax
	je	.L327
	vmovsd	816(%rsp), %xmm0
	movl	$4, %esi
	vaddsd	4816(%rsp), %xmm0, %xmm0
	movq	$0x000000000, 4816(%rsp)
	vmovsd	%xmm0, 816(%rsp)
	vmovsd	%xmm0, 16(%rdi)
.L327:
	movq	40(%rsp), %rdi
	movq	32(%rsp), %rdx
	movq	24(%rsp), %rcx
	movq	8(%rsp), %r8
	xorl	%eax, %eax
	vxorpd	%xmm1, %xmm1, %xmm1
	.p2align 4,,10
	.p2align 3
.L329:
	vmovupd	(%rdx,%rax), %ymm6
	vaddpd	(%rcx,%rax), %ymm6, %ymm0
	vmovupd	%ymm0, (%rcx,%rax)
	vmovapd	%ymm0, (%rdi,%rax)
	vmovupd	%ymm1, (%rdx,%rax)
	addq	$32, %rax
	cmpq	%r8, %rax
	jne	.L329
	movl	20(%rsp), %eax
	movl	16(%rsp), %edi
	addl	%eax, %esi
	cmpl	%edi, %eax
	je	.L330
	movl	4(%rsp), %eax
.L326:
	movl	252(%rsp), %edi
	subl	%eax, %edi
	cmpl	$1, %edi
	je	.L331
	movq	72(%rsp), %rdx
	salq	$3, %rax
	leaq	(%rdx,%rax), %rcx
	movq	48(%rsp), %rdx
	movl	%edi, %r8d
	addq	%rax, %rdx
	vmovupd	(%rdx), %xmm6
	addq	232(%rsp), %rax
	vaddpd	(%rcx), %xmm6, %xmm0
	shrl	%r8d
	vmovupd	%xmm0, (%rcx)
	vmovupd	%xmm0, (%rax)
	vxorpd	%xmm0, %xmm0, %xmm0
	vmovupd	%xmm0, (%rdx)
	cmpl	$1, %r8d
	je	.L332
	vmovupd	16(%rcx), %xmm6
	vaddpd	16(%rdx), %xmm6, %xmm1
	vmovupd	%xmm1, 16(%rcx)
	vmovupd	%xmm1, 16(%rax)
	vmovupd	%xmm0, 16(%rdx)
	cmpl	$2, %r8d
	je	.L332
	vmovupd	32(%rdx), %xmm6
	vaddpd	32(%rcx), %xmm6, %xmm1
	vmovupd	%xmm1, 32(%rcx)
	vmovupd	%xmm1, 32(%rax)
	vmovupd	%xmm0, 32(%rdx)
.L332:
	movl	%edi, %eax
	andl	$-2, %eax
	addl	%eax, %esi
	cmpl	%edi, %eax
	je	.L330
.L331:
	decl	%esi
	movslq	%esi, %rsi
	vmovsd	4800(%rsp,%rsi,8), %xmm0
	movq	232(%rsp), %rax
	vaddsd	800(%rsp,%rsi,8), %xmm0, %xmm0
	movq	$0x000000000, 4800(%rsp,%rsi,8)
	vmovsd	%xmm0, 800(%rsp,%rsi,8)
	vmovsd	%xmm0, (%rax,%rsi,8)
.L330:
	incl	220(%rsp)
	movl	220(%rsp), %eax
	cmpl	$51, %eax
	jne	.L257
	leaq	.LC2(%rip), %rax
	leaq	272(%rsp), %r12
	movq	%rax, 280(%rsp)
	movq	%r12, %rdi
	movabsq	$25769803904, %rax
	movl	$6154, 288(%rsp)
	movq	%rax, 272(%rsp)
	vzeroupper
	call	_gfortran_st_write@PLT
	movl	$29, %edx
	leaq	.LC73(%rip), %rsi
	movq	%r12, %rdi
	call	_gfortran_transfer_character_write@PLT
	movq	%r12, %rdi
	call	_gfortran_st_write_done@PLT
	xorl	%edx, %edx
	xorl	%esi, %esi
	xorl	%edi, %edi
	call	_gfortran_stop_string@PLT
.L340:
	xorl	%eax, %eax
	movl	$1, %esi
	jmp	.L326
.L255:
	movq	8824(%rsp), %rax
	subq	%fs:40, %rax
	jne	.L409
	vzeroupper
	leaq	-40(%rbp), %rsp
	popq	%rbx
	popq	%r12
	popq	%r13
	popq	%r14
	popq	%r15
	popq	%rbp
	.cfi_remember_state
	.cfi_def_cfa 7, 8
	ret
.L404:
	.cfi_restore_state
	vmulsd	%xmm1, %xmm10, %xmm5
	jmp	.L272
.L336:
	leaq	800(%rsp), %rbx
	movq	%rbx, 72(%rsp)
	movl	$1, %eax
	jmp	.L260
.L403:
	leaq	800(%rsp), %rax
	movq	%rax, 72(%rsp)
	leaq	4800(%rsp), %rax
	movq	%rax, 48(%rsp)
	jmp	.L263
.L409:
	vzeroupper
	call	__stack_chk_fail@PLT
	.cfi_endproc
.LFE15:
	.size	jacobi_, .-jacobi_
	.section	.rodata
	.align 4
.LC75:
	.long	3
	.text
	.p2align 4
	.globl	kabsch_
	.type	kabsch_, @function
kabsch_:
.LFB11:
	.cfi_startproc
	pushq	%rbp
	.cfi_def_cfa_offset 16
	.cfi_offset 6, -16
	vxorpd	%xmm7, %xmm7, %xmm7
	movq	%rsi, %r11
	movq	%rsp, %rbp
	.cfi_def_cfa_register 6
	pushq	%r15
	movq	%rsi, %r9
	movl	$10000, %r10d
	pushq	%r14
	pushq	%r13
	pushq	%r12
	.cfi_offset 15, -24
	.cfi_offset 14, -32
	.cfi_offset 13, -40
	.cfi_offset 12, -48
	leaq	qk.32(%rip), %r12
	movq	%r12, %r13
	pushq	%rbx
	.cfi_offset 3, -56
	movq	%rdx, %rbx
	andq	$-32, %rsp
	subq	$544, %rsp
	movq	%rdi, 8(%rsp)
	movl	(%rdi), %edi
	vmovsd	.LC8(%rip), %xmm0
	vcvtsi2sdl	%edi, %xmm7, %xmm4
	movq	%rcx, (%rsp)
	movl	%edi, %ecx
	andl	$-4, %ecx
	vdivsd	%xmm4, %xmm0, %xmm4
	movq	%fs:40, %rax
	movq	%rax, 536(%rsp)
	xorl	%eax, %eax
	leal	-1(%rdi), %eax
	movl	%eax, 144(%rsp)
	movl	%edi, %eax
	movl	%ecx, 168(%rsp)
	shrl	$2, %eax
	incl	%ecx
	movl	%ecx, 160(%rsp)
	salq	$5, %rax
	movq	%rdx, %rcx
.L413:
	testl	%edi, %edi
	jle	.L423
	cmpl	$2, 144(%rsp)
	jbe	.L446
	vxorpd	%xmm1, %xmm1, %xmm1
	xorl	%esi, %esi
	vmovapd	%ymm1, %ymm0
	.p2align 4,,10
	.p2align 3
.L415:
	vaddpd	(%rcx,%rsi), %ymm0, %ymm0
	vaddpd	(%r9,%rsi), %ymm1, %ymm1
	addq	$32, %rsi
	cmpq	%rax, %rsi
	jne	.L415
	vextractf128	$0x1, %ymm1, %xmm2
	vextractf128	$0x1, %ymm0, %xmm3
	vaddpd	%xmm1, %xmm2, %xmm2
	vaddpd	%xmm0, %xmm3, %xmm3
	vunpckhpd	%xmm2, %xmm2, %xmm1
	vunpckhpd	%xmm3, %xmm3, %xmm0
	vaddpd	%xmm2, %xmm1, %xmm1
	vaddpd	%xmm3, %xmm0, %xmm0
	cmpl	168(%rsp), %edi
	je	.L416
	movl	160(%rsp), %esi
.L414:
	movslq	%esi, %r8
	leaq	-10001(%r10,%r8), %r8
	vaddsd	(%rbx,%r8,8), %xmm0, %xmm0
	vaddsd	(%r11,%r8,8), %xmm1, %xmm1
	leal	1(%rsi), %r8d
	cmpl	%edi, %r8d
	jg	.L417
	movslq	%r8d, %r8
	leaq	-10001(%r10,%r8), %r8
	addl	$2, %esi
	vaddsd	(%rbx,%r8,8), %xmm0, %xmm0
	vaddsd	(%r11,%r8,8), %xmm1, %xmm1
	cmpl	%esi, %edi
	jl	.L417
	movslq	%esi, %rsi
	leaq	-10001(%r10,%rsi), %rsi
	vaddsd	(%rbx,%rsi,8), %xmm0, %xmm0
	vaddsd	(%r11,%rsi,8), %xmm1, %xmm1
.L417:
	cmpl	$2, 144(%rsp)
	vmulsd	%xmm0, %xmm4, %xmm3
	vmulsd	%xmm1, %xmm4, %xmm2
	jbe	.L452
.L444:
	vbroadcastsd	%xmm2, %ymm5
	vbroadcastsd	%xmm3, %ymm1
	xorl	%esi, %esi
	.p2align 4,,10
	.p2align 3
.L422:
	vmovupd	(%r9,%rsi), %ymm6
	vsubpd	%ymm5, %ymm6, %ymm0
	vmovapd	%ymm0, 0(%r13,%rsi)
	vmovupd	(%rcx,%rsi), %ymm6
	vsubpd	%ymm1, %ymm6, %ymm0
	vmovupd	%ymm0, (%rcx,%rsi)
	addq	$32, %rsi
	cmpq	%rsi, %rax
	jne	.L422
	movl	168(%rsp), %esi
	cmpl	%esi, %edi
	je	.L423
	movl	%esi, %r8d
	movl	160(%rsp), %esi
.L442:
	movl	%edi, %r14d
	subl	%r8d, %r14d
	cmpl	$1, %r14d
	je	.L419
	addq	%r10, %r8
	salq	$3, %r8
	vmovupd	-80000(%r11,%r8), %xmm6
	vmovddup	%xmm2, %xmm0
	vsubpd	%xmm0, %xmm6, %xmm0
	leaq	-80000(%rbx,%r8), %r15
	vmovupd	(%r15), %xmm7
	vmovapd	%xmm0, -80000(%r12,%r8)
	vmovddup	%xmm3, %xmm0
	vsubpd	%xmm0, %xmm7, %xmm0
	movl	%r14d, %r8d
	andl	$-2, %r8d
	vmovupd	%xmm0, (%r15)
	addl	%r8d, %esi
	cmpl	%r8d, %r14d
	je	.L423
.L419:
	movslq	%esi, %rsi
	leaq	-10001(%r10,%rsi), %rsi
	vmovsd	(%rbx,%rsi,8), %xmm0
	vmovsd	(%r11,%rsi,8), %xmm1
	vsubsd	%xmm3, %xmm0, %xmm0
	vsubsd	%xmm2, %xmm1, %xmm1
	vmovsd	%xmm0, (%rbx,%rsi,8)
	vmovsd	%xmm1, (%r12,%rsi,8)
.L423:
	addq	$10000, %r10
	addq	$80000, %rcx
	addq	$80000, %r9
	addq	$80000, %r13
	cmpq	$40000, %r10
	jne	.L413
	vxorps	%xmm5, %xmm5, %xmm5
	vcvtsi2ssl	%edi, %xmm5, %xmm2
	vmovsd	.LC74(%rip), %xmm0
	movl	144(%rsp), %r14d
	leaq	392(%rsp), %r13
	vcvtss2sd	%xmm2, %xmm2, %xmm2
	vdivsd	%xmm2, %xmm0, %xmm2
	movl	$10000, %r11d
.L429:
	movq	%r12, %rcx
	movq	%r13, %r9
	movl	$10000, %r8d
.L428:
	movq	$0x000000000, -8(%r9)
	testl	%edi, %edi
	jle	.L447
	cmpl	$2, %r14d
	jbe	.L448
	xorl	%esi, %esi
	vxorpd	%xmm0, %xmm0, %xmm0
	.p2align 4,,10
	.p2align 3
.L426:
	vmovupd	(%rdx,%rsi), %ymm7
	vfmadd231pd	(%rcx,%rsi), %ymm7, %ymm0
	addq	$32, %rsi
	cmpq	%rsi, %rax
	jne	.L426
	vextractf128	$0x1, %ymm0, %xmm1
	vaddpd	%xmm0, %xmm1, %xmm1
	vunpckhpd	%xmm1, %xmm1, %xmm0
	vaddpd	%xmm1, %xmm0, %xmm0
	cmpl	168(%rsp), %edi
	je	.L427
	movl	160(%rsp), %esi
.L425:
	movslq	%esi, %r10
	leaq	-10001(%r10,%r11), %r15
	vmovsd	(%rbx,%r15,8), %xmm5
	leaq	-10001(%r10,%r8), %r10
	vfmadd231sd	(%r12,%r10,8), %xmm5, %xmm0
	leal	1(%rsi), %r10d
	cmpl	%edi, %r10d
	jg	.L427
	movslq	%r10d, %r10
	leaq	-10001(%r10,%r11), %r15
	vmovsd	(%rbx,%r15,8), %xmm5
	leaq	-10001(%r8,%r10), %r10
	addl	$2, %esi
	vfmadd231sd	(%r12,%r10,8), %xmm5, %xmm0
	cmpl	%esi, %edi
	jl	.L427
	movslq	%esi, %rsi
	leaq	-10001(%r8,%rsi), %r10
	vmovsd	(%r12,%r10,8), %xmm5
	leaq	-10001(%r11,%rsi), %rsi
	vfmadd231sd	(%rbx,%rsi,8), %xmm5, %xmm0
.L427:
	vmulsd	%xmm0, %xmm2, %xmm0
.L424:
	addq	$10000, %r8
	vmovsd	%xmm0, -8(%r9)
	addq	$80000, %rcx
	addq	$24, %r9
	cmpq	$40000, %r8
	jne	.L428
	addq	$10000, %r11
	addq	$8, %r13
	addq	$80000, %rdx
	cmpq	$40000, %r11
	jne	.L429
	vmovapd	384(%rsp), %xmm2
	vmovsd	424(%rsp), %xmm5
	vmovsd	440(%rsp), %xmm3
	vmovsd	400(%rsp), %xmm15
	vmovsd	%xmm5, 160(%rsp)
	vmovddup	%xmm5, %xmm10
	vpermilpd	$1, %xmm2, %xmm5
	vmovhpd	416(%rsp), %xmm5, %xmm5
	vmovddup	%xmm3, %xmm8
	vmovsd	%xmm15, 168(%rsp)
	vmovddup	%xmm15, %xmm13
	vmovddup	416(%rsp), %xmm12
	vmovddup	392(%rsp), %xmm15
	vmulpd	%xmm12, %xmm5, %xmm12
	vmulpd	%xmm5, %xmm15, %xmm15
	vmulpd	%xmm5, %xmm8, %xmm5
	vmovsd	432(%rsp), %xmm1
	vmovhps	408(%rsp), %xmm2, %xmm9
	vmovddup	%xmm1, %xmm7
	vmovapd	400(%rsp), %xmm4
	vfmadd132pd	%xmm9, %xmm5, %xmm7
	vmovddup	408(%rsp), %xmm11
	vmovddup	384(%rsp), %xmm14
	vfmadd231pd	%xmm9, %xmm11, %xmm12
	vfmadd132pd	%xmm9, %xmm15, %xmm14
	vmovsd	448(%rsp), %xmm0
	vunpcklpd	%xmm2, %xmm4, %xmm4
	vmovhps	424(%rsp), %xmm4, %xmm4
	vmovddup	%xmm0, %xmm6
	vfmadd231pd	%xmm4, %xmm13, %xmm14
	vfmadd231pd	%xmm10, %xmm4, %xmm12
	vfmadd132pd	%xmm6, %xmm7, %xmm4
	leaq	224(%rsp), %r14
	leaq	192(%rsp), %r13
	leaq	.LC75(%rip), %rdx
	leaq	464(%rsp), %rdi
	vmovapd	%xmm4, 512(%rsp)
	vmulsd	392(%rsp), %xmm3, %xmm4
	leaq	188(%rsp), %r9
	movq	%r14, %r8
	movq	%r13, %rcx
	movq	%rdx, %rsi
	vfmadd231sd	384(%rsp), %xmm1, %xmm4
	vmovapd	%xmm2, 80(%rsp)
	vmovapd	%xmm14, 464(%rsp)
	vmovupd	%xmm12, 488(%rsp)
	vmovsd	%xmm0, 16(%rsp)
	vfmadd231sd	168(%rsp), %xmm0, %xmm4
	vmovsd	%xmm4, 480(%rsp)
	vmulsd	416(%rsp), %xmm3, %xmm4
	vmulsd	%xmm3, %xmm3, %xmm3
	vfmadd231sd	408(%rsp), %xmm1, %xmm4
	vfmadd132sd	%xmm1, %xmm3, %xmm1
	vfmadd231sd	160(%rsp), %xmm0, %xmm4
	vfmadd231sd	%xmm0, %xmm0, %xmm1
	vmovsd	%xmm4, 504(%rsp)
	vmovsd	%xmm1, 528(%rsp)
	vzeroupper
	call	jacobi_
	leaq	.LC75(%rip), %rcx
	movq	%rcx, %rdx
	movq	%r14, %rsi
	movq	%r13, %rdi
	call	eigsrt_
	vmovsd	224(%rsp), %xmm7
	vmovsd	264(%rsp), %xmm10
	vmovsd	256(%rsp), %xmm6
	vmulsd	%xmm10, %xmm7, %xmm9
	vmovsd	248(%rsp), %xmm8
	vmulsd	240(%rsp), %xmm6, %xmm5
	vmulsd	232(%rsp), %xmm8, %xmm13
	vmovddup	%xmm10, %xmm2
	vfmsub231sd	240(%rsp), %xmm8, %xmm9
	vmovddup	232(%rsp), %xmm4
	vfmsub231sd	232(%rsp), %xmm10, %xmm5
	vfmsub231sd	%xmm6, %xmm7, %xmm13
	vmovapd	%xmm4, 96(%rsp)
	vmovddup	%xmm9, %xmm12
	vmovapd	%xmm12, 112(%rsp)
	vmovupd	408(%rsp), %xmm12
	vmovapd	%xmm2, %xmm15
	vmulpd	%xmm4, %xmm12, %xmm4
	vmovddup	%xmm5, %xmm2
	vmovddup	%xmm8, %xmm3
	vmovapd	%xmm2, 128(%rsp)
	vmovddup	%xmm13, %xmm2
	vmovapd	%xmm3, 144(%rsp)
	vmovapd	%xmm2, %xmm3
	vmovapd	80(%rsp), %xmm2
	vmovddup	%xmm7, %xmm14
	vfmadd231pd	%xmm14, %xmm2, %xmm4
	vmovapd	432(%rsp), %xmm11
	vmovddup	%xmm6, %xmm0
	vmovddup	240(%rsp), %xmm1
	vmovapd	%xmm1, 80(%rsp)
	vfmadd231pd	%xmm1, %xmm11, %xmm4
	vmulpd	%xmm0, %xmm12, %xmm1
	vmulpd	112(%rsp), %xmm12, %xmm12
	vmovsd	%xmm5, 272(%rsp)
	vmovapd	%xmm0, 64(%rsp)
	vmovapd	%xmm4, 304(%rsp)
	vfmadd231pd	144(%rsp), %xmm2, %xmm1
	vfmadd231pd	128(%rsp), %xmm2, %xmm12
	vmovapd	%xmm3, 32(%rsp)
	vmovsd	%xmm9, 280(%rsp)
	vmovsd	%xmm13, 288(%rsp)
	vfmadd231pd	%xmm15, %xmm11, %xmm1
	vfmadd231pd	%xmm3, %xmm11, %xmm12
	vmovsd	160(%rsp), %xmm11
	vmovapd	%xmm15, 48(%rsp)
	vmulsd	232(%rsp), %xmm11, %xmm2
	vmovupd	%xmm1, 328(%rsp)
	vmovapd	%xmm12, 352(%rsp)
	vmovsd	168(%rsp), %xmm15
	vmovsd	16(%rsp), %xmm0
	vfmadd231sd	%xmm15, %xmm7, %xmm2
	vfmadd231sd	240(%rsp), %xmm0, %xmm2
	vmovsd	%xmm2, 320(%rsp)
	vmulsd	%xmm11, %xmm6, %xmm2
	vmovapd	320(%rsp), %xmm3
	vfmadd231sd	%xmm15, %xmm8, %xmm2
	vfmadd132sd	%xmm10, %xmm2, %xmm0
	vmovhps	328(%rsp), %xmm4, %xmm2
	vmovsd	%xmm0, 344(%rsp)
	vpermilpd	$1, %xmm4, %xmm0
	vmovhpd	336(%rsp), %xmm0, %xmm0
	vmulpd	%xmm0, %xmm0, %xmm0
	vunpcklpd	%xmm4, %xmm3, %xmm4
	vmovhps	344(%rsp), %xmm4, %xmm4
	vfmadd231pd	%xmm2, %xmm2, %xmm0
	vfmadd132pd	%xmm4, %xmm0, %xmm4
	vmovapd	.LC68(%rip), %xmm0
	vsqrtpd	%xmm4, %xmm4
	vdivpd	%xmm4, %xmm0, %xmm4
	vmovlpd	312(%rsp), %xmm1, %xmm0
	vpermilpd	$1, 312(%rsp), %xmm1
	vmovhpd	344(%rsp), %xmm1, %xmm1
	vmulpd	%xmm2, %xmm4, %xmm2
	vmulpd	%xmm4, %xmm1, %xmm1
	vmulpd	%xmm4, %xmm0, %xmm0
	vmovsd	%xmm2, %xmm2, %xmm15
	vmovsd	%xmm1, %xmm2, %xmm3
	vunpcklpd	%xmm0, %xmm2, %xmm12
	vmovsd	%xmm0, %xmm0, %xmm11
	vshufpd	$1, %xmm2, %xmm0, %xmm4
	vmovapd	%xmm3, 320(%rsp)
	vunpckhpd	%xmm0, %xmm0, %xmm0
	vmovsd	%xmm4, %xmm1, %xmm3
	vmovsd	%xmm1, %xmm1, %xmm4
	vmovapd	%xmm3, 336(%rsp)
	vmulsd	%xmm4, %xmm0, %xmm3
	vunpckhpd	%xmm1, %xmm1, %xmm1
	vunpckhpd	%xmm2, %xmm2, %xmm2
	vmulsd	%xmm8, %xmm1, %xmm8
	vmulsd	%xmm6, %xmm1, %xmm6
	vfmsub231sd	%xmm1, %xmm11, %xmm3
	vmulsd	%xmm10, %xmm1, %xmm10
	vfmadd132sd	%xmm4, %xmm8, %xmm7
	vmovq	%xmm3, %rdx
	vmulsd	%xmm15, %xmm1, %xmm3
	movq	%rdx, 352(%rsp)
	vfmsub231sd	%xmm2, %xmm4, %xmm3
	vmulsd	%xmm2, %xmm11, %xmm2
	vmovsd	%xmm3, 360(%rsp)
	vfmsub132sd	%xmm0, %xmm2, %xmm15
	vmovupd	328(%rsp), %xmm2
	vmovapd	352(%rsp), %xmm11
	vmulpd	144(%rsp), %xmm2, %xmm3
	vmulpd	64(%rsp), %xmm2, %xmm0
	vmulpd	48(%rsp), %xmm2, %xmm2
	vfmadd231sd	%xmm15, %xmm5, %xmm7
	vmovsd	%xmm6, %xmm6, %xmm5
	vfmadd132pd	%xmm12, %xmm3, %xmm14
	vfmadd231pd	96(%rsp), %xmm12, %xmm0
	vfmadd231pd	80(%rsp), %xmm12, %xmm2
	vfmadd231sd	232(%rsp), %xmm4, %xmm5
	vfmadd132sd	240(%rsp), %xmm10, %xmm4
	vmovapd	%xmm14, %xmm3
	vfmadd231pd	128(%rsp), %xmm11, %xmm3
	vfmadd231pd	112(%rsp), %xmm11, %xmm0
	vfmadd132pd	32(%rsp), %xmm2, %xmm11
	vfmadd231sd	%xmm15, %xmm9, %xmm5
	vfmadd132sd	%xmm13, %xmm4, %xmm15
	vmovapd	%xmm3, 16(%rsp)
	vmovapd	%xmm0, 64(%rsp)
	vmovapd	%xmm11, 80(%rsp)
	movq	8(%rsp), %rax
	movl	(%rax), %ecx
	testl	%ecx, %ecx
	jle	.L449
	vunpckhpd	%xmm3, %xmm3, %xmm4
	vmovsd	%xmm3, %xmm3, %xmm8
	vmovsd	%xmm3, 168(%rsp)
	vunpckhpd	%xmm11, %xmm11, %xmm6
	vunpckhpd	%xmm0, %xmm0, %xmm3
	leal	-1(%rcx), %edi
	vmovsd	%xmm0, 160(%rsp)
	vmovsd	%xmm11, 144(%rsp)
	vmovsd	%xmm4, 128(%rsp)
	vmovsd	%xmm3, 112(%rsp)
	vmovsd	%xmm6, 96(%rsp)
	cmpl	$2, %edi
	jbe	.L450
	movl	%ecx, %r10d
	shrl	$2, %r10d
	leaq	160000+qkk.31(%rip), %rax
	salq	$5, %r10
	vbroadcastsd	%xmm8, %ymm9
	vbroadcastsd	%xmm0, %ymm13
	vbroadcastsd	%xmm6, %ymm12
	vbroadcastsd	%xmm11, %ymm11
	vbroadcastsd	%xmm4, %ymm0
	vbroadcastsd	%xmm3, %ymm14
	vbroadcastsd	%xmm7, %ymm10
	vbroadcastsd	%xmm5, %ymm8
	vbroadcastsd	%xmm15, %ymm6
	leaq	160000+qk.32(%rip), %rdx
	addq	%rax, %r10
	.p2align 4,,10
	.p2align 3
.L432:
	vmovapd	-80000(%rdx), %ymm3
	vmovapd	-160000(%rdx), %ymm2
	vmulpd	%ymm3, %ymm13, %ymm4
	vmovapd	(%rdx), %ymm1
	addq	$32, %rax
	addq	$32, %rdx
	vfmadd231pd	%ymm2, %ymm9, %ymm4
	vfmadd231pd	%ymm1, %ymm11, %ymm4
	vmovapd	%ymm4, -160032(%rax)
	vmulpd	%ymm3, %ymm14, %ymm4
	vmulpd	%ymm3, %ymm8, %ymm3
	vfmadd231pd	%ymm2, %ymm0, %ymm4
	vfmadd132pd	%ymm10, %ymm3, %ymm2
	vfmadd231pd	%ymm1, %ymm12, %ymm4
	vfmadd132pd	%ymm6, %ymm2, %ymm1
	vmovapd	%ymm4, -80032(%rax)
	vmovapd	%ymm1, -32(%rax)
	cmpq	%rax, %r10
	jne	.L432
	movl	%ecx, %edx
	andl	$-4, %edx
	leal	1(%rdx), %eax
	cmpl	%ecx, %edx
	je	.L472
.L431:
	movl	%ecx, %r11d
	subl	%edx, %r11d
	cmpl	$1, %r11d
	je	.L473
	leal	20000(%rdx), %r14d
	vmovapd	80(%rsp), %xmm9
	vmovapd	(%r12,%r14,8), %xmm10
	vpermilpd	$3, %xmm9, %xmm4
	vpermilpd	$0, %xmm9, %xmm11
	vmulpd	%xmm10, %xmm11, %xmm11
	vmulpd	%xmm10, %xmm4, %xmm4
	vmovddup	%xmm15, %xmm3
	leal	10000(%rdx), %r10d
	vmovapd	64(%rsp), %xmm0
	vmulpd	%xmm10, %xmm3, %xmm10
	vmovapd	(%r12,%r10,8), %xmm8
	vpermilpd	$3, %xmm0, %xmm14
	vpermilpd	$0, %xmm0, %xmm0
	vfmadd132pd	%xmm8, %xmm11, %xmm0
	vfmadd231pd	%xmm14, %xmm8, %xmm4
	vmovapd	16(%rsp), %xmm6
	vmovddup	%xmm5, %xmm2
	movl	%edx, %r13d
	vfmadd132pd	%xmm2, %xmm10, %xmm8
	vpermilpd	$0, %xmm6, %xmm12
	vpermilpd	$3, %xmm6, %xmm13
	vmovapd	(%r12,%r13,8), %xmm6
	vmovddup	%xmm7, %xmm1
	vfmadd132pd	%xmm6, %xmm0, %xmm12
	vfmadd231pd	%xmm13, %xmm6, %xmm4
	vfmadd132pd	%xmm1, %xmm8, %xmm6
	leaq	qkk.31(%rip), %rdx
	vmovapd	%xmm12, (%rdx,%r13,8)
	vmovapd	%xmm4, (%rdx,%r10,8)
	movl	%r11d, %r10d
	andl	$-2, %r10d
	vmovapd	%xmm6, (%rdx,%r14,8)
	addl	%r10d, %eax
	cmpl	%r10d, %r11d
	je	.L435
.L434:
	leal	9999(%rax), %r10d
	movslq	%r10d, %r10
	vmovsd	(%r12,%r10,8), %xmm6
	leal	-1(%rax), %r11d
	vmulsd	160(%rsp), %xmm6, %xmm0
	movslq	%r11d, %r11
	vmovsd	(%r12,%r11,8), %xmm3
	addl	$19999, %eax
	cltq
	vfmadd231sd	168(%rsp), %xmm3, %xmm0
	vmovsd	(%r12,%rax,8), %xmm1
	vfmadd231sd	144(%rsp), %xmm1, %xmm0
	vmovsd	%xmm0, (%rdx,%r11,8)
	vmulsd	112(%rsp), %xmm6, %xmm0
	vmulsd	%xmm5, %xmm6, %xmm6
	vfmadd231sd	128(%rsp), %xmm3, %xmm0
	vfmadd132sd	%xmm7, %xmm6, %xmm3
	vfmadd231sd	96(%rsp), %xmm1, %xmm0
	vfmadd132sd	%xmm15, %xmm3, %xmm1
	vmovsd	%xmm0, (%rdx,%r10,8)
	vmovsd	%xmm1, (%rdx,%rax,8)
.L435:
	movq	(%rsp), %rax
	movq	$0x000000000, (%rax)
	cmpl	$2, %edi
	jbe	.L451
.L443:
	movl	%ecx, %esi
	shrl	$2, %esi
	salq	$5, %rsi
	leaq	160000+qkk.31(%rip), %rdx
	addq	%rbx, %rsi
	movq	%rbx, %rax
	vxorpd	%xmm1, %xmm1, %xmm1
	.p2align 4,,10
	.p2align 3
.L440:
	vmovupd	80000(%rax), %ymm6
	vmovupd	(%rax), %ymm5
	vsubpd	-80000(%rdx), %ymm6, %ymm3
	vmovupd	160000(%rax), %ymm7
	vsubpd	-160000(%rdx), %ymm5, %ymm2
	vmulpd	%ymm3, %ymm3, %ymm3
	vsubpd	(%rdx), %ymm7, %ymm0
	addq	$32, %rax
	addq	$32, %rdx
	vfmadd132pd	%ymm0, %ymm1, %ymm0
	vfmadd132pd	%ymm2, %ymm3, %ymm2
	vaddpd	%ymm0, %ymm2, %ymm1
	cmpq	%rsi, %rax
	jne	.L440
	vextractf128	$0x1, %ymm1, %xmm0
	vaddpd	%xmm1, %xmm0, %xmm1
	movl	%ecx, %esi
	andl	$-4, %esi
	vunpckhpd	%xmm1, %xmm1, %xmm3
	vaddpd	%xmm1, %xmm3, %xmm1
	leal	1(%rsi), %eax
	leaq	qkk.31(%rip), %rdx
	vmovsd	%xmm1, %xmm1, %xmm3
	cmpl	%esi, %ecx
	je	.L469
.L441:
	movl	%ecx, %r8d
	subl	%esi, %r8d
	cmpl	$1, %r8d
	je	.L437
	movl	%esi, %r9d
	vmovupd	(%rbx,%r9,8), %xmm5
	leal	10000(%rsi), %edi
	vsubpd	(%rdx,%r9,8), %xmm5, %xmm0
	vmovupd	(%rbx,%rdi,8), %xmm5
	addl	$20000, %esi
	vsubpd	(%rdx,%rdi,8), %xmm5, %xmm1
	vmovupd	(%rbx,%rsi,8), %xmm5
	vmulpd	%xmm1, %xmm1, %xmm1
	vfmadd231pd	%xmm0, %xmm0, %xmm1
	vsubpd	(%rdx,%rsi,8), %xmm5, %xmm0
	movl	%r8d, %esi
	andl	$-2, %esi
	addl	%esi, %eax
	vfmadd132pd	%xmm0, %xmm1, %xmm0
	vunpckhpd	%xmm0, %xmm0, %xmm1
	vaddpd	%xmm0, %xmm1, %xmm0
	vaddsd	%xmm0, %xmm3, %xmm3
	cmpl	%r8d, %esi
	je	.L469
.L437:
	movslq	%eax, %rsi
	leaq	(%rbx,%rsi,8), %rsi
	vmovsd	-8(%rsi), %xmm1
	leal	-1(%rax), %edi
	movslq	%edi, %rdi
	vsubsd	(%rdx,%rdi,8), %xmm1, %xmm1
	vmovsd	79992(%rsi), %xmm2
	leal	9999(%rax), %edi
	movslq	%edi, %rdi
	vsubsd	(%rdx,%rdi,8), %xmm2, %xmm2
	vmovsd	159992(%rsi), %xmm0
	addl	$19999, %eax
	vmulsd	%xmm2, %xmm2, %xmm2
	cltq
	vsubsd	(%rdx,%rax,8), %xmm0, %xmm0
	vfmadd132sd	%xmm1, %xmm2, %xmm1
	vfmadd132sd	%xmm0, %xmm3, %xmm0
	vaddsd	%xmm0, %xmm1, %xmm3
	vzeroupper
.L430:
	vxorpd	%xmm7, %xmm7, %xmm7
	vcvtsi2sdl	%ecx, %xmm7, %xmm0
	movq	(%rsp), %rax
	vdivsd	%xmm0, %xmm3, %xmm0
	vsqrtsd	%xmm0, %xmm0, %xmm0
	vmovsd	%xmm0, (%rax)
	movq	536(%rsp), %rax
	subq	%fs:40, %rax
	jne	.L474
	leaq	-40(%rbp), %rsp
	popq	%rbx
	popq	%r12
	popq	%r13
	popq	%r14
	popq	%r15
	popq	%rbp
	.cfi_remember_state
	.cfi_def_cfa 7, 8
	ret
	.p2align 4,,10
	.p2align 3
.L447:
	.cfi_restore_state
	vxorpd	%xmm0, %xmm0, %xmm0
	jmp	.L424
.L448:
	vxorpd	%xmm0, %xmm0, %xmm0
	movl	$1, %esi
	jmp	.L425
.L469:
	vzeroupper
	jmp	.L430
.L416:
	vmulsd	%xmm0, %xmm4, %xmm3
	vmulsd	%xmm1, %xmm4, %xmm2
	jmp	.L444
.L449:
	vxorpd	%xmm3, %xmm3, %xmm3
	jmp	.L430
.L452:
	xorl	%r8d, %r8d
	movl	$1, %esi
	jmp	.L442
.L446:
	vxorpd	%xmm1, %xmm1, %xmm1
	vmovsd	%xmm1, %xmm1, %xmm0
	movl	$1, %esi
	jmp	.L414
.L472:
	movq	(%rsp), %rax
	movq	$0x000000000, (%rax)
	jmp	.L443
.L450:
	xorl	%edx, %edx
	movl	$1, %eax
	jmp	.L431
.L451:
	xorl	%esi, %esi
	vxorpd	%xmm3, %xmm3, %xmm3
	movl	$1, %eax
	jmp	.L441
.L473:
	leaq	qkk.31(%rip), %rdx
	jmp	.L434
.L474:
	call	__stack_chk_fail@PLT
	.cfi_endproc
.LFE11:
	.size	kabsch_, .-kabsch_
	.p2align 4
	.globl	compute_rmsd_
	.type	compute_rmsd_, @function
compute_rmsd_:
.LFB4:
	.cfi_startproc
	pushq	%r13
	.cfi_def_cfa_offset 16
	.cfi_offset 13, -16
	movq	%rdi, %r13
	pushq	%r12
	.cfi_def_cfa_offset 24
	.cfi_offset 12, -24
	subq	$8, %rsp
	.cfi_def_cfa_offset 32
	movslq	8+bas_(%rip), %r12
	testl	%r12d, %r12d
	jle	.L476
	salq	$3, %r12
	movq	%r12, %rdx
	leaq	pos_(%rip), %rsi
	leaq	r.34(%rip), %rdi
	call	memcpy@PLT
	movq	%r12, %rdx
	leaq	80000+pos_(%rip), %rsi
	leaq	80000+r.34(%rip), %rdi
	call	memcpy@PLT
	movq	%r12, %rdx
	leaq	160000+pos_(%rip), %rsi
	leaq	160000+r.34(%rip), %rdi
	call	memcpy@PLT
	movq	%r12, %rdx
	leaq	nat_(%rip), %rsi
	leaq	rn.33(%rip), %rdi
	call	memcpy@PLT
	movq	%r12, %rdx
	leaq	80000+nat_(%rip), %rsi
	leaq	80000+rn.33(%rip), %rdi
	call	memcpy@PLT
	movq	%r12, %rdx
	leaq	160000+nat_(%rip), %rsi
	leaq	160000+rn.33(%rip), %rdi
	call	memcpy@PLT
.L476:
	addq	$8, %rsp
	.cfi_def_cfa_offset 24
	popq	%r12
	.cfi_def_cfa_offset 16
	movq	%r13, %rcx
	leaq	rn.33(%rip), %rdx
	leaq	r.34(%rip), %rsi
	leaq	8+bas_(%rip), %rdi
	popq	%r13
	.cfi_def_cfa_offset 8
	jmp	kabsch_
	.cfi_endproc
.LFE4:
	.size	compute_rmsd_, .-compute_rmsd_
	.p2align 4
	.globl	kmt_
	.type	kmt_, @function
kmt_:
.LFB16:
	.cfi_startproc
	leaq	8(%rsp), %r10
	.cfi_def_cfa 10, 0
	andq	$-32, %rsp
	pushq	-8(%r10)
	pushq	%rbp
	.cfi_escape 0x10,0x6,0x2,0x76,0
	movq	%rsp, %rbp
	pushq	%r15
	pushq	%r14
	pushq	%r13
	pushq	%r12
	pushq	%r10
	.cfi_escape 0xf,0x3,0x76,0x58,0x6
	.cfi_escape 0x10,0xf,0x2,0x76,0x78
	.cfi_escape 0x10,0xe,0x2,0x76,0x70
	.cfi_escape 0x10,0xd,0x2,0x76,0x68
	.cfi_escape 0x10,0xc,0x2,0x76,0x60
	pushq	%rbx
	subq	$256, %rsp
	.cfi_escape 0x10,0x3,0x2,0x76,0x50
	movq	%rsi, -280(%rbp)
	movq	%rdi, -272(%rbp)
	movl	(%rdx), %r12d
	movq	%fs:40, %rax
	movq	%rax, -56(%rbp)
	xorl	%eax, %eax
	movl	(%rcx), %eax
	subl	%r12d, %eax
	leal	1(%rax), %esi
	movslq	%esi, %rdx
	testq	%rdx, %rdx
	movl	%eax, -192(%rbp)
	movl	$0, %eax
	cmovs	%rax, %rdx
	movl	%esi, -180(%rbp)
	leaq	15(,%rdx,4), %rax
	shrq	$4, %rax
	salq	$4, %rax
	subq	%rax, %rsp
	movq	%rsp, -200(%rbp)
	subq	%rax, %rsp
	leaq	15(,%rdx,8), %rax
	shrq	$4, %rax
	salq	$4, %rax
	movq	%rsp, %r13
	subq	%rax, %rsp
	movq	%rsp, %r9
	subq	%rax, %rsp
	movq	%rsp, %rbx
	subq	%rax, %rsp
	movq	%rsp, %r10
	testl	%esi, %esi
	jle	.L610
	movl	-192(%rbp), %eax
	movslq	%r12d, %rsi
	leaq	8(,%rax,8), %r14
	leaq	-8(,%rsi,8), %r15
	leaq	pos_(%rip), %rax
	movq	%r9, %rdi
	movq	%rsi, -264(%rbp)
	movq	%r14, %rdx
	leaq	(%rax,%r15), %rsi
	movq	%r9, -80(%rbp)
	movq	%r10, -72(%rbp)
	movq	%rax, -256(%rbp)
	call	memcpy@PLT
	movq	-256(%rbp), %rax
	movq	%r14, %rdx
	leaq	80000(%rax,%r15), %rsi
	movq	%rbx, %rdi
	call	memcpy@PLT
	movq	-72(%rbp), %r10
	movq	-256(%rbp), %rax
	movq	%r10, %rdi
	leaq	160000(%rax,%r15), %rsi
	movq	%r14, %rdx
	call	memcpy@PLT
	cmpl	$6, -192(%rbp)
	movq	-72(%rbp), %r10
	movq	-80(%rbp), %r9
	jbe	.L534
	movl	-180(%rbp), %edx
	movq	-200(%rbp), %rsi
	vmovdqa	.LC76(%rip), %ymm1
	shrl	$3, %edx
	vmovd	%r12d, %xmm4
	salq	$5, %rdx
	vmovdqa	.LC77(%rip), %ymm3
	vpbroadcastd	%xmm4, %ymm4
	movq	%rsi, %rax
	addq	%rsi, %rdx
	vmovdqa	%ymm1, %ymm2
	vpcmpeqd	%ymm5, %ymm5, %ymm5
.L482:
	vmovdqa	%ymm2, %ymm0
	vpaddd	%ymm4, %ymm0, %ymm0
	vpaddd	%ymm5, %ymm0, %ymm0
	vmovdqu	%ymm0, (%rax)
	addq	$32, %rax
	vpaddd	%ymm3, %ymm2, %ymm2
	cmpq	%rax, %rdx
	jne	.L482
	movl	-180(%rbp), %esi
	movl	%esi, %edx
	andl	$-8, %edx
	leal	1(%rdx), %eax
	cmpl	%edx, %esi
	je	.L483
.L481:
	movl	-192(%rbp), %esi
	movl	-180(%rbp), %ecx
	subl	%edx, %esi
	subl	%edx, %ecx
	cmpl	$2, %esi
	jbe	.L484
	vmovd	%eax, %xmm0
	vpshufd	$0, %xmm0, %xmm0
	vpaddd	.LC78(%rip), %xmm0, %xmm0
	vmovd	%r12d, %xmm3
	vpshufd	$0, %xmm3, %xmm1
	vpaddd	%xmm1, %xmm0, %xmm0
	movq	-200(%rbp), %rsi
	vpcmpeqd	%xmm1, %xmm1, %xmm1
	vpaddd	%xmm1, %xmm0, %xmm0
	vmovdqu	%xmm0, (%rsi,%rdx,4)
	movl	%ecx, %edx
	andl	$-4, %edx
	addl	%edx, %eax
	cmpl	%edx, %ecx
	je	.L485
.L484:
	movq	-200(%rbp), %rdi
	leal	-1(%rax), %edx
	movl	-192(%rbp), %r8d
	movslq	%edx, %rdx
	leal	-1(%r12,%rax), %ecx
	movl	%ecx, (%rdi,%rdx,4)
	leal	1(%rax), %edx
	cmpl	%eax, %r8d
	jl	.L485
	movslq	%eax, %rcx
	leal	-1(%r12,%rdx), %esi
	movl	%esi, (%rdi,%rcx,4)
	addl	$2, %eax
	cmpl	%edx, %r8d
	jl	.L485
	movslq	%edx, %rdx
	leal	-1(%r12,%rax), %eax
	movl	%eax, (%rdi,%rdx,4)
.L485:
	cmpl	$6, -192(%rbp)
	jbe	.L535
	vmovd	%r12d, %xmm4
	vmovdqa	.LC76(%rip), %ymm1
	vmovdqa	.LC77(%rip), %ymm3
	vpbroadcastd	%xmm4, %ymm4
.L483:
	movl	-180(%rbp), %edx
	movq	%r13, %rax
	shrl	$3, %edx
	salq	$5, %rdx
	addq	%r13, %rdx
	vpcmpeqd	%ymm2, %ymm2, %ymm2
.L488:
	vmovdqa	%ymm1, %ymm0
	vpaddd	%ymm4, %ymm0, %ymm0
	vpaddd	%ymm2, %ymm0, %ymm0
	vmovdqu	%ymm0, (%rax)
	addq	$32, %rax
	vpaddd	%ymm3, %ymm1, %ymm1
	cmpq	%rax, %rdx
	jne	.L488
	movl	-180(%rbp), %esi
	movl	%esi, %edx
	andl	$-8, %edx
	leal	1(%rdx), %eax
	cmpl	%esi, %edx
	je	.L597
.L486:
	movl	-192(%rbp), %esi
	movl	-180(%rbp), %ecx
	subl	%edx, %esi
	subl	%edx, %ecx
	cmpl	$2, %esi
	jbe	.L491
	vmovd	%eax, %xmm0
	vpshufd	$0, %xmm0, %xmm0
	vpaddd	.LC78(%rip), %xmm0, %xmm0
	vmovd	%r12d, %xmm3
	vpshufd	$0, %xmm3, %xmm1
	vpaddd	%xmm1, %xmm0, %xmm0
	vpcmpeqd	%xmm1, %xmm1, %xmm1
	vpaddd	%xmm1, %xmm0, %xmm0
	vmovdqu	%xmm0, 0(%r13,%rdx,4)
	movl	%ecx, %edx
	andl	$-4, %edx
	addl	%edx, %eax
	cmpl	%edx, %ecx
	je	.L597
.L491:
	leal	-1(%rax), %edx
	movl	-192(%rbp), %edi
	movslq	%edx, %rdx
	leal	-1(%r12,%rax), %ecx
	movl	%ecx, 0(%r13,%rdx,4)
	leal	1(%rax), %edx
	cmpl	%eax, %edi
	jl	.L597
	movslq	%eax, %rcx
	leal	-1(%r12,%rdx), %esi
	movl	%esi, 0(%r13,%rcx,4)
	addl	$2, %eax
	cmpl	%edx, %edi
	jl	.L597
	movslq	%edx, %rdx
	leal	-1(%r12,%rax), %eax
	movl	%eax, 0(%r13,%rdx,4)
	vzeroupper
	jmp	.L489
.L597:
	vzeroupper
.L489:
	movq	-264(%rbp), %rcx
	movq	-256(%rbp), %rsi
	leaq	0(,%rcx,8), %rax
	leaq	(%rsi,%rax), %rdi
	leaq	-8(%rsi,%rcx,8), %rcx
	movq	%rdi, -232(%rbp)
	leaq	80000(%rsi,%rax), %rdi
	movq	%rdi, -240(%rbp)
	movq	%rcx, -208(%rbp)
	leaq	160000(%rsi,%rax), %rdi
	leaq	79992(%rsi,%rax), %rcx
	movl	-180(%rbp), %r11d
	leaq	159992(%rsi,%rax), %rax
	movq	%rdi, -248(%rbp)
	movq	%rcx, -216(%rbp)
	movl	$0, -164(%rbp)
	movl	$0, -188(%rbp)
	movl	$0, -184(%rbp)
	movl	$0, -168(%rbp)
	movl	$0, -172(%rbp)
	movl	$0, -176(%rbp)
	movq	%rax, -224(%rbp)
	movl	$2, %eax
	movq	%rbx, %r13
	movq	%r10, %r12
	movl	%eax, %ebx
	movq	%r9, %r10
	movl	%r11d, %r9d
	.p2align 4,,10
	.p2align 3
.L480:
	cmpl	$1, %r9d
	jle	.L518
.L493:
	leal	-2(%rbx), %eax
	cmpl	$1, %eax
	jle	.L536
	cmpl	%eax, %r9d
	cmovle	%r9d, %eax
	movslq	%ebx, %rcx
	salq	$3, %rcx
	leaq	(%r10,%rcx), %r8
	movl	%eax, %r11d
	movq	%r10, %rdi
	movq	%r13, %rax
	leaq	0(%r13,%rcx), %rsi
	movl	%ebx, %r10d
	movl	%r9d, %r13d
	movl	$1, %edx
	movq	%r8, %r9
	addq	%r12, %rcx
	movl	%r11d, %r8d
	movq	%rdi, %rbx
	movq	%rax, %r11
.L496:
	movq	(%rsi), %rax
	vmovsd	-16(%r9), %xmm0
	vmovsd	-16(%rsi), %xmm1
	vmovsd	-8(%r9), %xmm4
	vmovq	%rax, %xmm3
	vsubsd	%xmm0, %xmm4, %xmm2
	vmovsd	-8(%rsi), %xmm7
	vmovsd	(%rcx), %xmm5
	vsubsd	%xmm1, %xmm3, %xmm3
	movq	-8(%r12,%rdx,8), %r14
	vmovsd	(%r9), %xmm15
	vsubsd	%xmm1, %xmm7, %xmm13
	movq	-8(%r11,%rdx,8), %rdi
	vmovsd	%xmm7, -128(%rbp)
	vmovsd	%xmm5, -136(%rbp)
	vmovsd	%xmm5, %xmm5, %xmm7
	vmovsd	-16(%rcx), %xmm5
	vmulsd	%xmm2, %xmm3, %xmm12
	vmovsd	%xmm2, -96(%rbp)
	vmovq	%r14, %xmm2
	vsubsd	%xmm5, %xmm2, %xmm10
	vsubsd	%xmm15, %xmm0, %xmm9
	vmovq	%rdi, %xmm2
	vsubsd	%xmm1, %xmm2, %xmm14
	vmovsd	-8(%rcx), %xmm2
	vsubsd	%xmm0, %xmm15, %xmm8
	vsubsd	%xmm5, %xmm2, %xmm2
	vmovsd	-8(%rbx,%rdx,8), %xmm6
	vmovsd	%xmm9, -72(%rbp)
	vmulsd	%xmm9, %xmm10, %xmm9
	vsubsd	%xmm5, %xmm7, %xmm7
	vsubsd	%xmm0, %xmm6, %xmm11
	vmulsd	%xmm2, %xmm8, %xmm8
	vmulsd	%xmm2, %xmm3, %xmm3
	vfmadd132sd	%xmm7, %xmm9, %xmm11
	vmovsd	%xmm4, -120(%rbp)
	vsubsd	%xmm6, %xmm0, %xmm9
	vsubsd	%xmm4, %xmm0, %xmm4
	vmovsd	%xmm15, -88(%rbp)
	vmulsd	%xmm3, %xmm9, %xmm9
	vmovsd	%xmm4, -104(%rbp)
	vfmadd132sd	%xmm7, %xmm8, %xmm4
	vmovsd	(%r11,%rdx,8), %xmm15
	vmovsd	%xmm8, -112(%rbp)
	vfmadd231sd	%xmm13, %xmm11, %xmm9
	vmulsd	%xmm4, %xmm14, %xmm11
	vfmadd231sd	%xmm10, %xmm12, %xmm11
	vmovsd	(%r12,%rdx,8), %xmm10
	vsubsd	%xmm5, %xmm10, %xmm10
	vaddsd	%xmm9, %xmm11, %xmm14
	vmovsd	(%rbx,%rdx,8), %xmm11
	vsubsd	%xmm0, %xmm11, %xmm9
	vmovsd	%xmm14, -80(%rbp)
	vsubsd	%xmm1, %xmm15, %xmm14
	vmovq	%xmm9, %r15
	vmulsd	-72(%rbp), %xmm10, %xmm9
	vmovq	%r15, %xmm8
	vmulsd	%xmm4, %xmm14, %xmm14
	vxorpd	%xmm4, %xmm4, %xmm4
	vfmadd231sd	%xmm7, %xmm8, %xmm9
	vsubsd	%xmm11, %xmm0, %xmm8
	vfmadd231sd	%xmm10, %xmm12, %xmm14
	vmulsd	%xmm3, %xmm8, %xmm8
	vfmadd132sd	%xmm13, %xmm8, %xmm9
	vaddsd	%xmm14, %xmm9, %xmm9
	vmulsd	-80(%rbp), %xmm9, %xmm9
	vcomisd	%xmm4, %xmm9
	jbe	.L587
.L606:
	leal	1(%rdx), %eax
	incq	%rdx
	cmpl	%edx, %r8d
	jg	.L496
	movq	%rbx, %rsi
	movl	%r13d, %r9d
	movl	%r10d, %ebx
	movq	%r11, %r13
	movq	%rsi, %r10
	cmpl	%eax, %r9d
	jle	.L512
.L601:
	xorl	%edi, %edi
.L495:
	movslq	%ebx, %rdx
	salq	$3, %rdx
	leaq	0(%r13,%rdx), %r15
	leal	1(%rbx), %r14d
	leaq	(%r10,%rdx), %r11
	addq	%r12, %rdx
	movq	%rdx, %rcx
	cltq
	movl	%r9d, %edx
	movq	%r10, %r9
	movq	%r15, %r10
	movl	%r14d, %r15d
	movq	%r12, %r14
	movl	%edi, %r12d
	movq	%r13, %rdi
.L517:
	cmpl	%eax, %r15d
	jl	.L611
.L507:
	incq	%rax
	cmpl	%eax, %edx
	jg	.L517
	movq	%r9, %r10
	movq	%rdi, %r13
	movl	%edx, %r9d
	movl	%r12d, %edi
	movq	%r14, %r12
.L516:
	testl	%edi, %edi
	je	.L512
	leal	1(%rbx), %r14d
.L509:
	movl	%r14d, %ebx
.L494:
	cmpl	%r9d, %ebx
	jl	.L480
	jne	.L520
	movl	-164(%rbp), %r8d
	testl	%r8d, %r8d
	jle	.L520
	cmpl	$2, %r9d
	je	.L521
.L545:
	movl	$0, -164(%rbp)
	movl	$2, %ebx
	cmpl	$1, %r9d
	jg	.L493
	.p2align 4,,10
	.p2align 3
.L518:
	movslq	%r9d, %rax
	decq	%rax
	incl	-164(%rbp)
	movq	$0x000000000, (%r10,%rax,8)
	movq	$0x000000000, 0(%r13,%rax,8)
	movq	$0x000000000, (%r12,%rax,8)
	decl	%r9d
	jmp	.L494
	.p2align 4,,10
	.p2align 3
.L611:
	cmpl	$1, %r12d
	je	.L612
	movl	%r15d, %esi
	movl	%r12d, %r13d
	movq	%r9, %r15
	movq	%rdi, %r9
.L508:
	vmovsd	-16(%r10), %xmm4
	vmovsd	-8(%r10), %xmm6
	vmovsd	-16(%r11), %xmm0
	vmovsd	-8(%r11), %xmm15
	vsubsd	%xmm4, %xmm6, %xmm9
	leal	-1(%rax), %edi
	vmovsd	%xmm6, -144(%rbp)
	vmovsd	(%r10), %xmm6
	movslq	%edi, %rdi
	vsubsd	%xmm0, %xmm15, %xmm5
	movq	(%r14,%rdi,8), %r12
	vmovsd	%xmm6, -104(%rbp)
	vsubsd	%xmm4, %xmm6, %xmm6
	vmovsd	-16(%rcx), %xmm7
	vmovsd	(%r15,%rdi,8), %xmm8
	vmovsd	(%r11), %xmm2
	movq	(%r9,%rdi,8), %rdi
	vmovsd	(%rcx), %xmm3
	vmovq	%r12, %xmm1
	vmulsd	%xmm5, %xmm6, %xmm14
	vsubsd	%xmm7, %xmm1, %xmm11
	vmovsd	%xmm5, -120(%rbp)
	vsubsd	%xmm0, %xmm2, %xmm1
	vmovq	%rdi, %xmm5
	vmovsd	%xmm2, -96(%rbp)
	vsubsd	%xmm2, %xmm0, %xmm2
	vsubsd	%xmm7, %xmm3, %xmm13
	vmovsd	%xmm3, -136(%rbp)
	vsubsd	%xmm4, %xmm5, %xmm3
	vmovsd	-8(%rcx), %xmm5
	vmovsd	%xmm2, -72(%rbp)
	vsubsd	%xmm7, %xmm5, %xmm5
	vmulsd	%xmm2, %xmm11, %xmm2
	vsubsd	%xmm0, %xmm8, %xmm10
	vmulsd	%xmm6, %xmm5, %xmm6
	vmulsd	%xmm5, %xmm1, %xmm1
	vsubsd	%xmm15, %xmm0, %xmm12
	vfmadd132sd	%xmm13, %xmm2, %xmm10
	vsubsd	%xmm8, %xmm0, %xmm2
	vmovsd	%xmm15, -128(%rbp)
	vmovsd	%xmm12, -88(%rbp)
	vmulsd	%xmm6, %xmm2, %xmm2
	vmovsd	%xmm1, -112(%rbp)
	vfmadd132sd	%xmm9, %xmm2, %xmm10
	vmovsd	%xmm1, %xmm1, %xmm2
	vfmadd231sd	%xmm12, %xmm13, %xmm2
	vmulsd	%xmm3, %xmm2, %xmm3
	vfmadd231sd	%xmm14, %xmm11, %xmm3
	vmovsd	(%r14,%rax,8), %xmm11
	vsubsd	%xmm7, %xmm11, %xmm11
	vaddsd	%xmm3, %xmm10, %xmm3
	vmovsd	(%r15,%rax,8), %xmm10
	vsubsd	%xmm0, %xmm10, %xmm15
	vmovsd	%xmm3, %xmm3, %xmm12
	vmovsd	%xmm3, -160(%rbp)
	vmovsd	(%r9,%rax,8), %xmm3
	vmovq	%xmm15, %r8
	vmulsd	-72(%rbp), %xmm11, %xmm15
	vsubsd	%xmm4, %xmm3, %xmm1
	vmovsd	%xmm1, -80(%rbp)
	vmovq	%r8, %xmm1
	vfmadd231sd	%xmm1, %xmm13, %xmm15
	vsubsd	%xmm10, %xmm0, %xmm1
	vmulsd	-80(%rbp), %xmm2, %xmm2
	vmovsd	%xmm1, -152(%rbp)
	vmulsd	%xmm1, %xmm6, %xmm1
	vfmadd231sd	%xmm11, %xmm14, %xmm2
	vfmadd132sd	%xmm9, %xmm1, %xmm15
	vxorpd	%xmm1, %xmm1, %xmm1
	vaddsd	%xmm15, %xmm2, %xmm15
	vmulsd	%xmm12, %xmm15, %xmm15
	vcomisd	%xmm1, %xmm15
	jbe	.L589
.L609:
	incq	%rax
	cmpl	%eax, %edx
	jle	.L594
	cmpl	%eax, %esi
	jl	.L508
	movq	%r9, %rdi
	movl	%r13d, %r12d
	movq	%r15, %r9
	movl	%esi, %r15d
	jmp	.L507
	.p2align 4,,10
	.p2align 3
.L612:
	incq	%rax
	cmpl	%eax, %edx
	jg	.L507
	movq	%r9, %r10
	movq	%r14, %r12
	movl	%edx, %r9d
	movq	%rdi, %r13
	movl	%r15d, %r14d
	jmp	.L509
	.p2align 4,,10
	.p2align 3
.L587:
	vmovsd	-72(%rbp), %xmm8
	vmovq	%rdi, %xmm4
	vfmadd132sd	%xmm13, %xmm12, %xmm8
	vsubsd	%xmm4, %xmm15, %xmm15
	vmovq	%r14, %xmm9
	vsubsd	%xmm9, %xmm10, %xmm10
	vsubsd	%xmm6, %xmm11, %xmm14
	vmovq	%xmm8, %r15
	vaddsd	%xmm6, %xmm0, %xmm8
	vsubsd	%xmm1, %xmm15, %xmm9
	vsubsd	%xmm0, %xmm14, %xmm4
	vsubsd	%xmm11, %xmm8, %xmm8
	vmovq	%r15, %xmm11
	vmulsd	-72(%rbp), %xmm2, %xmm2
	vmulsd	%xmm3, %xmm8, %xmm8
	vmulsd	%xmm0, %xmm3, %xmm3
	vmulsd	%xmm1, %xmm2, %xmm2
	vfmadd132sd	%xmm11, %xmm8, %xmm10
	vmovsd	-104(%rbp), %xmm11
	vmulsd	%xmm11, %xmm9, %xmm8
	vfmadd231sd	%xmm13, %xmm4, %xmm8
	vmovsd	%xmm8, %xmm8, %xmm4
	vfmadd132sd	%xmm7, %xmm10, %xmm4
	vmovsd	-128(%rbp), %xmm8
	vsubsd	%xmm8, %xmm1, %xmm10
	vmovq	%xmm4, %r14
	vsubsd	-136(%rbp), %xmm5, %xmm4
	vmulsd	%xmm7, %xmm10, %xmm7
	vmulsd	-72(%rbp), %xmm10, %xmm10
	vmulsd	%xmm11, %xmm4, %xmm4
	vfmadd132sd	%xmm0, %xmm2, %xmm7
	vfmadd132sd	%xmm5, %xmm3, %xmm10
	vmulsd	%xmm1, %xmm4, %xmm4
	vmovq	%r14, %xmm3
	vaddsd	%xmm7, %xmm10, %xmm10
	vfmsub231sd	%xmm5, %xmm12, %xmm4
	vmovsd	-80(%rbp), %xmm7
	vfmadd231sd	-112(%rbp), %xmm9, %xmm4
	vsubsd	%xmm10, %xmm4, %xmm10
	vmovq	%rdi, %xmm4
	vaddsd	%xmm3, %xmm10, %xmm10
	vmovsd	-88(%rbp), %xmm3
	vdivsd	%xmm10, %xmm7, %xmm10
	vmovsd	-120(%rbp), %xmm7
	vfmsub231sd	%xmm10, %xmm15, %xmm4
	vfnmadd132sd	%xmm10, %xmm6, %xmm14
	vmovq	%rax, %xmm6
	vsubsd	%xmm8, %xmm6, %xmm6
	vaddsd	%xmm1, %xmm4, %xmm2
	vsubsd	%xmm0, %xmm14, %xmm0
	vsubsd	%xmm7, %xmm14, %xmm5
	vmulsd	-96(%rbp), %xmm2, %xmm2
	vfmadd132sd	%xmm13, %xmm2, %xmm0
	vsubsd	%xmm7, %xmm3, %xmm2
	vaddsd	%xmm8, %xmm4, %xmm3
	vmulsd	%xmm3, %xmm2, %xmm2
	vfmadd231sd	%xmm6, %xmm5, %xmm2
	vxorpd	%xmm6, %xmm6, %xmm6
	vmulsd	%xmm2, %xmm0, %xmm0
	vcomisd	%xmm0, %xmm6
	jnb	.L606
	vmovq	%rax, %xmm0
	vsubsd	%xmm0, %xmm1, %xmm1
	vsubsd	-88(%rbp), %xmm14, %xmm14
	vaddsd	%xmm4, %xmm0, %xmm4
	vxorpd	%xmm0, %xmm0, %xmm0
	vmulsd	%xmm14, %xmm1, %xmm1
	xorl	%edi, %edi
	leal	1(%rdx), %eax
	vfmadd231sd	-72(%rbp), %xmm4, %xmm1
	vmulsd	%xmm2, %xmm1, %xmm1
	vcomisd	%xmm0, %xmm1
	seta	%dil
	incq	%rdx
	cmpl	%edx, %r8d
	jle	.L613
	vcomisd	%xmm1, %xmm0
	jnb	.L496
	movq	%rbx, %rax
	movl	%r13d, %r9d
	movl	%r10d, %ebx
	movq	%r11, %r13
	movq	%rax, %r10
	movl	%r8d, %r11d
	.p2align 4,,10
	.p2align 3
.L499:
	leaq	1(%rdx), %rcx
	leal	1(%rdx), %eax
	cmpl	%ecx, %r11d
	jle	.L537
	addq	$2, %rdx
	leal	1(%rcx), %eax
	cmpl	%edx, %r11d
	jg	.L499
.L537:
	movl	$1, %edi
.L498:
	cmpl	%eax, %r9d
	jg	.L495
	jmp	.L516
	.p2align 4,,10
	.p2align 3
.L589:
	vmovq	%rdi, %xmm1
	vsubsd	%xmm1, %xmm3, %xmm3
	vmovq	%r12, %xmm1
	vsubsd	%xmm1, %xmm11, %xmm11
	vmovsd	-72(%rbp), %xmm1
	vsubsd	%xmm8, %xmm10, %xmm15
	vfmadd132sd	%xmm9, %xmm14, %xmm1
	vsubsd	%xmm4, %xmm3, %xmm10
	vsubsd	%xmm0, %xmm15, %xmm2
	vmovq	%xmm1, %r12
	vaddsd	-152(%rbp), %xmm8, %xmm1
	vmulsd	%xmm6, %xmm1, %xmm1
	vmulsd	%xmm0, %xmm6, %xmm6
	vmovq	%xmm1, %r8
	vmovq	%r8, %xmm12
	vmovq	%r12, %xmm1
	vfmadd132sd	%xmm1, %xmm12, %xmm11
	vmulsd	-88(%rbp), %xmm10, %xmm1
	vmovsd	-144(%rbp), %xmm12
	vfmadd132sd	%xmm9, %xmm1, %xmm2
	vmovsd	-72(%rbp), %xmm1
	vmulsd	%xmm1, %xmm5, %xmm5
	vfmadd231sd	%xmm2, %xmm13, %xmm11
	vsubsd	%xmm12, %xmm4, %xmm2
	vmulsd	%xmm4, %xmm5, %xmm5
	vmulsd	%xmm2, %xmm13, %xmm13
	vmulsd	%xmm1, %xmm2, %xmm2
	vfmadd132sd	%xmm0, %xmm5, %xmm13
	vsubsd	-136(%rbp), %xmm7, %xmm5
	vfmadd132sd	%xmm7, %xmm6, %xmm2
	vmovsd	-112(%rbp), %xmm6
	vmulsd	-88(%rbp), %xmm5, %xmm5
	vaddsd	%xmm13, %xmm2, %xmm13
	vmovsd	-96(%rbp), %xmm2
	vmulsd	%xmm4, %xmm5, %xmm5
	vfmsub231sd	%xmm7, %xmm14, %xmm5
	vxorpd	%xmm7, %xmm7, %xmm7
	vfmadd132sd	%xmm10, %xmm5, %xmm6
	vmovsd	-128(%rbp), %xmm5
	vsubsd	%xmm5, %xmm2, %xmm2
	vsubsd	%xmm13, %xmm6, %xmm13
	vmovsd	-160(%rbp), %xmm6
	vaddsd	%xmm11, %xmm13, %xmm11
	vdivsd	%xmm11, %xmm6, %xmm11
	vmovq	%rdi, %xmm6
	vfmsub132sd	%xmm11, %xmm6, %xmm3
	vfnmadd132sd	%xmm11, %xmm8, %xmm15
	vmovsd	-104(%rbp), %xmm6
	vsubsd	%xmm12, %xmm6, %xmm6
	vaddsd	%xmm3, %xmm4, %xmm1
	vsubsd	%xmm0, %xmm15, %xmm0
	vmulsd	-120(%rbp), %xmm1, %xmm1
	vfmadd132sd	%xmm9, %xmm1, %xmm0
	vsubsd	%xmm5, %xmm15, %xmm1
	vaddsd	%xmm12, %xmm3, %xmm5
	vmulsd	%xmm5, %xmm2, %xmm2
	vfmadd132sd	%xmm6, %xmm2, %xmm1
	vmulsd	%xmm1, %xmm0, %xmm0
	vcomisd	%xmm0, %xmm7
	jnb	.L609
	vmovsd	-104(%rbp), %xmm0
	vsubsd	-96(%rbp), %xmm15, %xmm15
	vsubsd	%xmm0, %xmm4, %xmm4
	vaddsd	%xmm0, %xmm3, %xmm3
	vxorpd	%xmm0, %xmm0, %xmm0
	vmulsd	%xmm15, %xmm4, %xmm4
	xorl	%r12d, %r12d
	movq	%r9, %rdi
	movq	%r15, %r9
	movl	%esi, %r15d
	vfmadd231sd	-72(%rbp), %xmm3, %xmm4
	vmulsd	%xmm4, %xmm1, %xmm1
	vcomisd	%xmm0, %xmm1
	seta	%r12b
	jmp	.L507
	.p2align 4,,10
	.p2align 3
.L536:
	movl	$1, %eax
	jmp	.L601
	.p2align 4,,10
	.p2align 3
.L594:
	movq	%r9, %r13
	movq	%r15, %r10
	movl	%edx, %r9d
	movq	%r14, %r12
.L512:
	cmpl	%r9d, %ebx
	jge	.L518
	movl	%r9d, %eax
	subl	%ebx, %eax
	decl	%eax
	leaq	1(%rax), %rcx
	leal	-1(%rbx), %eax
	movslq	%eax, %r8
	leaq	0(,%r8,8), %r14
	leaq	0(,%rcx,8), %r15
	leaq	8(%r14), %rax
	leaq	(%r10,%rax), %rsi
	leaq	(%r10,%r14), %rdi
	movq	%r15, %rdx
	movl	%r9d, -104(%rbp)
	movq	%r10, -80(%rbp)
	movq	%rcx, -96(%rbp)
	movq	%r8, -88(%rbp)
	movq	%rax, -72(%rbp)
	call	memmove@PLT
	movq	-72(%rbp), %rax
	leaq	0(%r13,%r14), %rdi
	leaq	0(%r13,%rax), %rsi
	movq	%r15, %rdx
	call	memmove@PLT
	movq	-72(%rbp), %rax
	leaq	(%r12,%r14), %rdi
	leaq	(%r12,%rax), %rsi
	movq	%r15, %rdx
	call	memmove@PLT
	movq	-96(%rbp), %rcx
	movq	-88(%rbp), %r8
	leaq	0(,%rcx,4), %rdx
	movq	-200(%rbp), %rcx
	leaq	0(,%r8,4), %rax
	leaq	4(%rcx,%rax), %rsi
	leaq	(%rcx,%rax), %rdi
	call	memmove@PLT
	movq	-80(%rbp), %r10
	movl	-104(%rbp), %r9d
	jmp	.L518
	.p2align 4,,10
	.p2align 3
.L520:
	cmpl	$2, %ebx
	je	.L521
	movl	-168(%rbp), %eax
	movl	-176(%rbp), %esi
	xorl	$1, %eax
	cmpl	$199, %esi
	jg	.L585
	testl	%eax, %eax
	jne	.L614
	cmpl	$199, -176(%rbp)
	jg	.L585
.L529:
	movl	-184(%rbp), %edx
	movl	-172(%rbp), %esi
	xorl	%eax, %eax
	testl	%edx, %edx
	sete	%al
	cmpl	$199, %esi
	jg	.L586
	testl	%eax, %eax
	jne	.L615
	cmpl	$199, -172(%rbp)
	jg	.L586
.L531:
	cmpl	$1, -188(%rbp)
	jg	.L616
	movl	-188(%rbp), %esi
	movl	-180(%rbp), %eax
	leal	(%rsi,%rsi), %edx
	subl	%edx, %eax
	incl	%esi
	movl	%esi, -188(%rbp)
	leal	-2(%rax), %r9d
	cmpl	$3, %eax
	jle	.L545
	movq	-256(%rbp), %r15
	subl	$4, %eax
	movslq	%esi, %rbx
	addq	-264(%rbp), %rbx
	leaq	8(,%rax,8), %r14
	movq	%r10, %rdi
	leaq	(%r15,%rbx,8), %rsi
	movq	%r14, %rdx
	movl	%r9d, -80(%rbp)
	movq	%r10, -72(%rbp)
	call	memcpy@PLT
	leaq	80000(%r15,%rbx,8), %rsi
	movq	%r14, %rdx
	movq	%r13, %rdi
	call	memcpy@PLT
	leaq	160000(%r15,%rbx,8), %rsi
	movq	%r14, %rdx
	movq	%r12, %rdi
	call	memcpy@PLT
	movl	$2, %ebx
	movl	$0, -164(%rbp)
	movq	-72(%rbp), %r10
	movl	-80(%rbp), %r9d
	jmp	.L480
	.p2align 4,,10
	.p2align 3
.L521:
	movl	-176(%rbp), %eax
	movl	-172(%rbp), %esi
	orl	%esi, %eax
	je	.L539
	movl	-168(%rbp), %edi
	movl	-180(%rbp), %eax
	testl	%edi, %edi
	jne	.L524
	subl	%esi, %eax
	cmpl	$1, %eax
	jle	.L617
	decl	%eax
	leaq	0(,%rax,8), %r14
	movq	-208(%rbp), %rsi
	movq	%r10, %rdi
	movq	%r14, %rdx
	movq	%r10, -72(%rbp)
	movq	%rax, %rbx
	call	memcpy@PLT
	movq	-216(%rbp), %rsi
	movq	%r14, %rdx
	movq	%r13, %rdi
	call	memcpy@PLT
	movq	-224(%rbp), %rsi
	movq	%r14, %rdx
	movq	%r12, %rdi
	call	memcpy@PLT
	movq	-72(%rbp), %r10
.L526:
	incl	-172(%rbp)
	movl	%ebx, %r9d
.L600:
	movl	$0, -164(%rbp)
	movl	$1, -168(%rbp)
	movl	$2, %ebx
	jmp	.L480
	.p2align 4,,10
	.p2align 3
.L613:
	movq	%rbx, %rsi
	movl	%r13d, %r9d
	movl	%r10d, %ebx
	movq	%r11, %r13
	movq	%rsi, %r10
	jmp	.L498
	.p2align 4,,10
	.p2align 3
.L524:
	movl	-184(%rbp), %ecx
	testl	%ecx, %ecx
	jne	.L603
	movl	-188(%rbp), %esi
	subl	%esi, %eax
	leal	-2(%rax), %r9d
	incl	%esi
	movl	%esi, -188(%rbp)
	testl	%r9d, %r9d
	jle	.L540
	subl	$3, %eax
	leaq	8(,%rax,8), %r14
	movq	-232(%rbp), %rsi
	movq	%r10, %rdi
	movq	%r14, %rdx
	movl	%r9d, -80(%rbp)
	movq	%r10, -72(%rbp)
	call	memcpy@PLT
	movq	-240(%rbp), %rsi
	movq	%r14, %rdx
	movq	%r13, %rdi
	call	memcpy@PLT
	movq	-248(%rbp), %rsi
	movq	%r14, %rdx
	movq	%r12, %rdi
	call	memcpy@PLT
	movl	-168(%rbp), %eax
	movl	$0, -164(%rbp)
	movl	%eax, -184(%rbp)
	movq	-72(%rbp), %r10
	movl	-80(%rbp), %r9d
	movl	$2, %ebx
	jmp	.L480
.L585:
	testl	%eax, %eax
	je	.L529
	movl	-172(%rbp), %esi
	movl	-180(%rbp), %eax
	subl	%esi, %eax
	leal	-1(%rax), %r9d
	incl	%esi
	movl	%esi, -172(%rbp)
	testl	%r9d, %r9d
	jle	.L600
	subl	$2, %eax
	leaq	8(,%rax,8), %r14
	movq	-208(%rbp), %rsi
	movq	%r10, %rdi
	movq	%r14, %rdx
	movl	%r9d, -80(%rbp)
	movq	%r10, -72(%rbp)
	call	memcpy@PLT
	movq	-216(%rbp), %rsi
	movq	%r14, %rdx
	movq	%r13, %rdi
	call	memcpy@PLT
	movq	-224(%rbp), %rsi
	movq	%r14, %rdx
	movq	%r12, %rdi
	call	memcpy@PLT
	movl	$2, %ebx
	movl	$0, -164(%rbp)
	movl	$1, -168(%rbp)
	movq	-72(%rbp), %r10
	movl	-80(%rbp), %r9d
	jmp	.L480
.L586:
	testl	%eax, %eax
	je	.L531
	movl	-188(%rbp), %esi
	movl	-180(%rbp), %eax
	subl	%esi, %eax
	leal	-2(%rax), %r9d
	incl	%esi
	movl	%esi, -188(%rbp)
	testl	%r9d, %r9d
	jle	.L544
	subl	$3, %eax
	leaq	8(,%rax,8), %r14
	movq	-232(%rbp), %rsi
	movq	%r10, %rdi
	movq	%r14, %rdx
	movl	%r9d, -80(%rbp)
	movq	%r10, -72(%rbp)
	call	memcpy@PLT
	movq	-240(%rbp), %rsi
	movq	%r14, %rdx
	movq	%r13, %rdi
	call	memcpy@PLT
	movq	-248(%rbp), %rsi
	movq	%r14, %rdx
	movq	%r12, %rdi
	call	memcpy@PLT
	movl	$2, %ebx
	movl	$0, -164(%rbp)
	movl	$1, -184(%rbp)
	movq	-72(%rbp), %r10
	movl	-80(%rbp), %r9d
	jmp	.L480
.L614:
	movl	-180(%rbp), %eax
	subl	%esi, %eax
	leal	-1(%rax), %r9d
	incl	%esi
	movl	%esi, -176(%rbp)
	testl	%r9d, %r9d
	jle	.L541
	movq	-256(%rbp), %r15
	subl	$2, %eax
	movslq	%esi, %rbx
	addq	-264(%rbp), %rbx
	leaq	8(,%rax,8), %r14
	movq	%r10, %rdi
	leaq	-8(%r15,%rbx,8), %rsi
	movq	%r14, %rdx
	movl	%r9d, -80(%rbp)
	movq	%r10, -72(%rbp)
	call	memcpy@PLT
	leaq	79992(%r15,%rbx,8), %rsi
	movq	%r14, %rdx
	movq	%r13, %rdi
	call	memcpy@PLT
	leaq	159992(%r15,%rbx,8), %rsi
	movq	%r14, %rdx
	movq	%r12, %rdi
	call	memcpy@PLT
	movl	$2, %ebx
	movl	$0, -164(%rbp)
	movl	$0, -168(%rbp)
	movq	-72(%rbp), %r10
	movl	-80(%rbp), %r9d
	jmp	.L480
.L615:
	movl	-180(%rbp), %eax
	subl	%esi, %eax
	leal	-1(%rax), %r9d
	incl	%esi
	movl	%esi, -172(%rbp)
	testl	%r9d, %r9d
	jle	.L543
	subl	$2, %eax
	leaq	8(,%rax,8), %r14
	movq	-208(%rbp), %rsi
	movq	%r10, %rdi
	movq	%r14, %rdx
	movl	%r9d, -80(%rbp)
	movq	%r10, -72(%rbp)
	call	memcpy@PLT
	movq	-216(%rbp), %rsi
	movq	%r14, %rdx
	movq	%r13, %rdi
	call	memcpy@PLT
	movq	-224(%rbp), %rsi
	movq	%r14, %rdx
	movq	%r12, %rdi
	call	memcpy@PLT
	movl	$2, %ebx
	movl	$0, -164(%rbp)
	movl	$0, -184(%rbp)
	movq	-72(%rbp), %r10
	movl	-80(%rbp), %r9d
	jmp	.L480
.L540:
	movl	-168(%rbp), %eax
	movl	$0, -164(%rbp)
	movl	%eax, -184(%rbp)
	movl	$2, %ebx
	jmp	.L480
.L617:
	leal	-1(%rax), %ebx
	jmp	.L526
.L539:
	movl	$-1, %eax
.L523:
	movq	-280(%rbp), %rsi
	movl	-192(%rbp), %ebx
	movl	%ebx, (%rsi)
	movq	-272(%rbp), %rsi
	movl	%eax, (%rsi)
	movq	-56(%rbp), %rax
	subq	%fs:40, %rax
	jne	.L618
	leaq	-48(%rbp), %rsp
	popq	%rbx
	popq	%r10
	.cfi_remember_state
	.cfi_def_cfa 10, 0
	popq	%r12
	popq	%r13
	popq	%r14
	popq	%r15
	popq	%rbp
	leaq	-8(%r10), %rsp
	.cfi_def_cfa 7, 8
	ret
.L541:
	.cfi_restore_state
	movl	$0, -164(%rbp)
	movl	$0, -168(%rbp)
	movl	$2, %ebx
	jmp	.L480
.L616:
	movl	-180(%rbp), %eax
.L603:
	subl	-172(%rbp), %eax
	decl	%eax
	movl	%eax, -192(%rbp)
	movl	-176(%rbp), %eax
	decl	%eax
	jmp	.L523
.L544:
	movl	$0, -164(%rbp)
	movl	$1, -184(%rbp)
	movl	$2, %ebx
	jmp	.L480
.L543:
	movl	$0, -164(%rbp)
	movl	$0, -184(%rbp)
	movl	$2, %ebx
	jmp	.L480
.L610:
	movslq	%r12d, %rax
	movq	%rax, -264(%rbp)
	leaq	pos_(%rip), %rax
	movq	%rax, -256(%rbp)
	jmp	.L489
.L535:
	xorl	%edx, %edx
	movl	$1, %eax
	jmp	.L486
.L534:
	xorl	%edx, %edx
	movl	$1, %eax
	jmp	.L481
.L618:
	call	__stack_chk_fail@PLT
	.cfi_endproc
.LFE16:
	.size	kmt_, .-kmt_
	.p2align 4
	.globl	cgyration_
	.type	cgyration_, @function
cgyration_:
.LFB8:
	.cfi_startproc
	pushq	%rbp
	.cfi_def_cfa_offset 16
	.cfi_offset 6, -16
	movq	%rsp, %rbp
	.cfi_def_cfa_register 6
	pushq	%r15
	pushq	%r14
	pushq	%r13
	pushq	%r12
	pushq	%rbx
	andq	$-32, %rsp
	subq	$320, %rsp
	.cfi_offset 15, -24
	.cfi_offset 14, -32
	.cfi_offset 13, -40
	.cfi_offset 12, -48
	.cfi_offset 3, -56
	movq	%fs:40, %rax
	movq	%rax, 312(%rsp)
	movl	160000+bon_(%rip), %eax
	movl	%eax, 32(%rsp)
	testl	%eax, %eax
	jle	.L619
	leaq	120(%rsp), %rax
	movq	%rax, 16(%rsp)
	leaq	240(%rsp), %rax
	movq	%rax, 24(%rsp)
	leaq	128(%rsp), %rax
	movq	%rax, 8(%rsp)
	leaq	160(%rsp), %rax
	movl	$1, 36(%rsp)
	movq	%rax, (%rsp)
	leaq	gyr_(%rip), %r13
	leaq	160000(%r13), %r14
	leaq	120004+bon_(%rip), %r12
	leaq	pos_(%rip), %rbx
	.p2align 4,,10
	.p2align 3
.L636:
	movl	-4(%r12), %edx
	movl	32+bas_(%rip), %ecx
	movl	$0, 112(%rsp)
	movl	$0, 116(%rsp)
	leal	1(%rdx), %eax
	testl	%ecx, %ecx
	jne	.L648
	xorl	%r8d, %r8d
	xorl	%ecx, %ecx
	xorl	%r9d, %r9d
.L621:
	movl	(%r12), %edi
	vxorpd	%xmm6, %xmm6, %xmm6
	movl	%edi, %esi
	subl	%edx, %esi
	vcvtsi2sdl	%esi, %xmm6, %xmm0
	incl	36(%rsp)
	vmovsd	%xmm0, 40(%rsp)
	cmpl	%r8d, %esi
	je	.L649
	vmovd	%ecx, %xmm6
	vpinsrd	$1, %r9d, %xmm6, %xmm0
	vmovq	%xmm0, 480000(%r13)
.L625:
	vmovsd	.LC8(%rip), %xmm7
	vxorpd	%xmm0, %xmm0, %xmm0
	vdivsd	40(%rsp), %xmm7, %xmm6
	movq	$0x000000000, 224(%rsp)
	vmovsd	%xmm6, 104(%rsp)
	vmovapd	%ymm0, 160(%rsp)
	vmovapd	%ymm0, 192(%rsp)
	cmpl	%eax, %edi
	jl	.L650
	movl	%edi, %r8d
	subl	%eax, %r8d
	leal	1(%r8), %ecx
	cmpl	$2, %r8d
	jbe	.L642
	movslq	%eax, %r9
	movl	%ecx, %esi
	leaq	0(,%r9,8), %rdx
	vxorpd	%xmm2, %xmm2, %xmm2
	shrl	$2, %esi
	leaq	-8(%rbx,%rdx), %r15
	leaq	79992(%rbx,%rdx), %r11
	leaq	159992(%rbx,%rdx), %r10
	salq	$5, %rsi
	xorl	%edx, %edx
	vmovapd	%ymm2, %ymm1
	vmovapd	%ymm2, %ymm0
	.p2align 4,,10
	.p2align 3
.L627:
	vaddpd	(%r15,%rdx), %ymm0, %ymm0
	vaddpd	(%r11,%rdx), %ymm1, %ymm1
	vaddpd	(%r10,%rdx), %ymm2, %ymm2
	addq	$32, %rdx
	cmpq	%rsi, %rdx
	jne	.L627
	vextractf128	$0x1, %ymm2, %xmm3
	vaddpd	%xmm2, %xmm3, %xmm2
	movl	%ecx, %edx
	andl	$-4, %edx
	vunpckhpd	%xmm2, %xmm2, %xmm3
	vaddpd	%xmm2, %xmm3, %xmm2
	vextractf128	$0x1, %ymm1, %xmm3
	vaddpd	%xmm1, %xmm3, %xmm3
	leal	(%rdx,%rax), %esi
	vunpckhpd	%xmm3, %xmm3, %xmm1
	vaddpd	%xmm3, %xmm1, %xmm1
	vextractf128	$0x1, %ymm0, %xmm3
	vaddpd	%xmm0, %xmm3, %xmm3
	vunpckhpd	%xmm3, %xmm3, %xmm0
	vaddpd	%xmm3, %xmm0, %xmm0
	cmpl	%edx, %ecx
	je	.L651
.L626:
	movslq	%esi, %rdx
	leal	1(%rsi), %r9d
	vaddsd	-8(%rbx,%rdx,8), %xmm0, %xmm0
	vaddsd	79992(%rbx,%rdx,8), %xmm1, %xmm1
	vaddsd	159992(%rbx,%rdx,8), %xmm2, %xmm2
	cmpl	%r9d, %edi
	jl	.L629
	addl	$2, %esi
	vaddsd	(%rbx,%rdx,8), %xmm0, %xmm0
	vaddsd	80000(%rbx,%rdx,8), %xmm1, %xmm1
	vaddsd	160000(%rbx,%rdx,8), %xmm2, %xmm2
	movslq	%r9d, %r9
	cmpl	%esi, %edi
	jl	.L629
	vaddsd	(%rbx,%r9,8), %xmm0, %xmm0
	vaddsd	80000(%rbx,%r9,8), %xmm1, %xmm1
	vaddsd	160000(%rbx,%r9,8), %xmm2, %xmm2
.L629:
	vmovsd	104(%rsp), %xmm7
	vmulsd	%xmm7, %xmm0, %xmm6
	vmulsd	%xmm7, %xmm1, %xmm5
	vmulsd	%xmm7, %xmm2, %xmm7
	vmovsd	%xmm6, 56(%rsp)
	vunpcklpd	%xmm5, %xmm6, %xmm0
	vmovsd	%xmm5, 48(%rsp)
	vmovsd	%xmm7, 96(%rsp)
	vmovupd	%xmm0, (%r14)
	vmovsd	%xmm7, 16(%r14)
	cmpl	$2, %r8d
	jbe	.L643
	movslq	%eax, %r9
.L639:
	vbroadcastsd	96(%rsp), %ymm6
	movl	%ecx, %esi
	vxorpd	%xmm12, %xmm12, %xmm12
	salq	$3, %r9
	shrl	$2, %esi
	vbroadcastsd	56(%rsp), %ymm15
	vbroadcastsd	48(%rsp), %ymm14
	leaq	-8(%rbx,%r9), %r11
	leaq	79992(%rbx,%r9), %r10
	vmovapd	%ymm6, 64(%rsp)
	leaq	159992(%rbx,%r9), %r9
	salq	$5, %rsi
	xorl	%edx, %edx
	vmovapd	%ymm12, %ymm11
	vmovapd	%ymm12, %ymm10
	vmovapd	%ymm12, %ymm9
	vmovapd	%ymm12, %ymm8
	vmovapd	%ymm12, %ymm7
	vmovapd	%ymm12, %ymm6
	.p2align 4,,10
	.p2align 3
.L634:
	vmovupd	(%r10,%rdx), %ymm4
	vmovupd	(%r11,%rdx), %ymm5
	vsubpd	%ymm14, %ymm4, %ymm2
	vsubpd	%ymm15, %ymm5, %ymm0
	vmovupd	(%r9,%rdx), %ymm5
	vmulpd	%ymm2, %ymm2, %ymm4
	vsubpd	64(%rsp), %ymm5, %ymm1
	vmovapd	%ymm0, %ymm5
	addq	$32, %rdx
	vmulpd	%ymm1, %ymm1, %ymm3
	vfmadd132pd	%ymm0, %ymm4, %ymm5
	vfnmadd231pd	%ymm0, %ymm2, %ymm10
	vfnmadd231pd	%ymm2, %ymm1, %ymm11
	vfnmadd231pd	%ymm0, %ymm1, %ymm12
	vaddpd	%ymm4, %ymm3, %ymm4
	vaddpd	%ymm5, %ymm3, %ymm13
	vfmadd231pd	%ymm0, %ymm0, %ymm3
	vaddpd	%ymm4, %ymm7, %ymm7
	vaddpd	%ymm13, %ymm6, %ymm6
	vaddpd	%ymm5, %ymm9, %ymm9
	vaddpd	%ymm3, %ymm8, %ymm8
	cmpq	%rsi, %rdx
	jne	.L634
	vextractf128	$0x1, %ymm12, %xmm0
	vaddpd	%xmm12, %xmm0, %xmm12
	movl	%ecx, %edx
	andl	$-4, %edx
	vunpckhpd	%xmm12, %xmm12, %xmm0
	vaddpd	%xmm12, %xmm0, %xmm12
	vextractf128	$0x1, %ymm11, %xmm0
	vaddpd	%xmm11, %xmm0, %xmm11
	leal	(%rdx,%rax), %esi
	vunpckhpd	%xmm11, %xmm11, %xmm0
	vaddpd	%xmm11, %xmm0, %xmm11
	vextractf128	$0x1, %ymm10, %xmm0
	vaddpd	%xmm10, %xmm0, %xmm10
	vunpckhpd	%xmm10, %xmm10, %xmm0
	vaddpd	%xmm10, %xmm0, %xmm10
	vextractf128	$0x1, %ymm9, %xmm0
	vaddpd	%xmm9, %xmm0, %xmm9
	vunpckhpd	%xmm9, %xmm9, %xmm0
	vaddpd	%xmm9, %xmm0, %xmm9
	vextractf128	$0x1, %ymm8, %xmm0
	vaddpd	%xmm8, %xmm0, %xmm8
	vunpckhpd	%xmm8, %xmm8, %xmm0
	vaddpd	%xmm8, %xmm0, %xmm8
	vextractf128	$0x1, %ymm7, %xmm0
	vaddpd	%xmm7, %xmm0, %xmm7
	vunpckhpd	%xmm7, %xmm7, %xmm0
	vaddpd	%xmm7, %xmm0, %xmm7
	vextractf128	$0x1, %ymm6, %xmm0
	vaddpd	%xmm6, %xmm0, %xmm6
	vunpckhpd	%xmm6, %xmm6, %xmm0
	vaddpd	%xmm6, %xmm0, %xmm6
	cmpl	%ecx, %edx
	je	.L630
.L637:
	movl	%r8d, %ecx
	subl	%edx, %ecx
	leal	1(%rcx), %r8d
	cmpl	$1, %ecx
	jbe	.L631
	cltq
	addq	%rdx, %rax
	leaq	-8+pos_(%rip), %rcx
	vmovupd	(%rcx,%rax,8), %xmm5
	addq	$80000, %rcx
	vmovupd	(%rcx,%rax,8), %xmm4
	addq	$80000, %rcx
	vmovupd	(%rcx,%rax,8), %xmm2
	vmovddup	56(%rsp), %xmm14
	vmovddup	96(%rsp), %xmm1
	vsubpd	%xmm14, %xmm5, %xmm14
	vsubpd	%xmm1, %xmm2, %xmm1
	vmovddup	48(%rsp), %xmm0
	vsubpd	%xmm0, %xmm4, %xmm0
	vmulpd	%xmm1, %xmm14, %xmm2
	vmulpd	%xmm1, %xmm1, %xmm3
	vmulpd	%xmm1, %xmm0, %xmm1
	vmovapd	%xmm4, 64(%rsp)
	vmulpd	%xmm0, %xmm0, %xmm4
	vxorpd	.LC79(%rip), %xmm2, %xmm2
	vmulpd	%xmm0, %xmm14, %xmm0
	vunpckhpd	%xmm2, %xmm2, %xmm15
	vaddpd	%xmm2, %xmm15, %xmm2
	vxorpd	.LC79(%rip), %xmm1, %xmm1
	vmovapd	%xmm14, %xmm5
	vaddsd	%xmm2, %xmm12, %xmm12
	vunpckhpd	%xmm1, %xmm1, %xmm2
	vaddpd	%xmm1, %xmm2, %xmm1
	vfmadd132pd	%xmm14, %xmm4, %xmm5
	vxorpd	.LC79(%rip), %xmm0, %xmm0
	vaddsd	%xmm1, %xmm11, %xmm11
	vunpckhpd	%xmm0, %xmm0, %xmm1
	vaddpd	%xmm0, %xmm1, %xmm0
	vaddpd	%xmm3, %xmm5, %xmm13
	vaddpd	%xmm3, %xmm4, %xmm4
	vfmadd231pd	%xmm14, %xmm14, %xmm3
	vaddsd	%xmm0, %xmm10, %xmm10
	vunpckhpd	%xmm5, %xmm5, %xmm0
	vaddpd	%xmm5, %xmm0, %xmm0
	movl	%r8d, %eax
	andl	$-2, %eax
	vaddsd	%xmm0, %xmm9, %xmm9
	vunpckhpd	%xmm3, %xmm3, %xmm0
	vaddpd	%xmm3, %xmm0, %xmm3
	vunpckhpd	%xmm4, %xmm4, %xmm0
	vaddpd	%xmm4, %xmm0, %xmm4
	vunpckhpd	%xmm13, %xmm13, %xmm0
	vaddpd	%xmm13, %xmm0, %xmm13
	vaddsd	%xmm3, %xmm8, %xmm8
	vaddsd	%xmm4, %xmm7, %xmm7
	vaddsd	%xmm13, %xmm6, %xmm6
	addl	%eax, %esi
	cmpl	%eax, %r8d
	je	.L630
.L631:
	movslq	%esi, %rax
	vmovsd	79992(%rbx,%rax,8), %xmm2
	vmovsd	48(%rsp), %xmm14
	vmovsd	159992(%rbx,%rax,8), %xmm1
	vmovsd	96(%rsp), %xmm13
	vsubsd	%xmm14, %xmm2, %xmm2
	vsubsd	%xmm13, %xmm1, %xmm1
	vmovsd	-8(%rbx,%rax,8), %xmm0
	vmovsd	56(%rsp), %xmm15
	vmulsd	%xmm1, %xmm1, %xmm3
	vmulsd	%xmm2, %xmm2, %xmm4
	vsubsd	%xmm15, %xmm0, %xmm0
	vfnmadd231sd	%xmm1, %xmm2, %xmm11
	vmovsd	%xmm0, %xmm0, %xmm5
	vfmadd132sd	%xmm0, %xmm4, %xmm5
	vaddsd	%xmm6, %xmm3, %xmm6
	vaddsd	%xmm3, %xmm4, %xmm4
	vfmadd231sd	%xmm0, %xmm0, %xmm3
	vfnmadd231sd	%xmm2, %xmm0, %xmm10
	vfnmadd231sd	%xmm1, %xmm0, %xmm12
	vaddsd	%xmm6, %xmm5, %xmm6
	vaddsd	%xmm4, %xmm7, %xmm7
	vaddsd	%xmm3, %xmm8, %xmm8
	vaddsd	%xmm5, %xmm9, %xmm9
	cmpl	%esi, %edi
	jle	.L630
	vmovsd	80000(%rbx,%rax,8), %xmm2
	vmovsd	(%rbx,%rax,8), %xmm0
	vsubsd	%xmm14, %xmm2, %xmm2
	vmovsd	160000(%rbx,%rax,8), %xmm1
	vsubsd	%xmm15, %xmm0, %xmm0
	vmulsd	%xmm2, %xmm2, %xmm4
	vsubsd	%xmm13, %xmm1, %xmm1
	vmovsd	%xmm0, %xmm0, %xmm5
	vfnmadd231sd	%xmm2, %xmm0, %xmm10
	vmulsd	%xmm1, %xmm1, %xmm3
	vfmadd132sd	%xmm0, %xmm4, %xmm5
	vfnmadd231sd	%xmm1, %xmm2, %xmm11
	vfnmadd231sd	%xmm1, %xmm0, %xmm12
	vaddsd	%xmm3, %xmm4, %xmm4
	vaddsd	%xmm3, %xmm5, %xmm13
	vfmadd231sd	%xmm0, %xmm0, %xmm3
	vaddsd	%xmm4, %xmm7, %xmm7
	vaddsd	%xmm13, %xmm6, %xmm6
	vaddsd	%xmm5, %xmm9, %xmm9
	vaddsd	%xmm3, %xmm8, %xmm8
.L630:
	vmulsd	104(%rsp), %xmm6, %xmm6
	vunpcklpd	%xmm9, %xmm11, %xmm9
	vunpcklpd	%xmm10, %xmm12, %xmm0
	vmovsd	%xmm7, 160(%rsp)
	vmovsd	%xmm8, 192(%rsp)
	vmovupd	%xmm9, 216(%rsp)
	vmovapd	%xmm0, 176(%rsp)
.L638:
	vsqrtsd	%xmm6, %xmm6, %xmm6
	movq	8(%rsp), %r15
	leaq	.LC75(%rip), %rdx
	movq	16(%rsp), %r9
	movq	24(%rsp), %r8
	movq	(%rsp), %rdi
	vunpcklpd	%xmm12, %xmm11, %xmm11
	movq	%r15, %rcx
	movq	%rdx, %rsi
	vmovddup	40(%rsp), %xmm7
	vmovsd	%xmm10, 168(%rsp)
	vmovapd	%xmm7, 64(%rsp)
	vmovupd	%xmm11, 200(%rsp)
	vmovsd	%xmm6, 0(%r13)
	vzeroupper
	call	jacobi_
	vmovapd	128(%rsp), %xmm6
	leaq	.LC75(%rip), %rdi
	vdivpd	64(%rsp), %xmm6, %xmm0
	vmovsd	104(%rsp), %xmm6
	vsqrtpd	%xmm0, %xmm0
	vmovapd	%xmm0, 128(%rsp)
	vmulsd	144(%rsp), %xmm6, %xmm0
	movq	%r15, %rsi
	addq	$8, %r13
	addq	$24, %r14
	addq	$4, %r12
	vsqrtsd	%xmm0, %xmm0, %xmm0
	vmovsd	%xmm0, 144(%rsp)
	call	sort_
	vmovsd	128(%rsp), %xmm0
	vmovsd	136(%rsp), %xmm1
	vaddsd	144(%rsp), %xmm0, %xmm0
	movslq	-8(%r12), %rdx
	movslq	-4(%r12), %rax
	vmulsd	.LC72(%rip), %xmm0, %xmm0
	vmovsd	80000(%rbx,%rdx,8), %xmm3
	vmovsd	(%rbx,%rdx,8), %xmm2
	vsubsd	79992(%rbx,%rax,8), %xmm3, %xmm3
	vsubsd	-8(%rbx,%rax,8), %xmm2, %xmm2
	vsubsd	%xmm0, %xmm1, %xmm1
	vmulsd	%xmm3, %xmm3, %xmm3
	movl	32(%rsp), %edi
	vdivsd	%xmm0, %xmm1, %xmm0
	vfmadd132sd	%xmm2, %xmm3, %xmm2
	vmovsd	%xmm0, 399992(%r13)
	vmovsd	160000(%rbx,%rdx,8), %xmm0
	vsubsd	159992(%rbx,%rax,8), %xmm0, %xmm0
	vfmadd132sd	%xmm0, %xmm2, %xmm0
	vsqrtsd	%xmm0, %xmm0, %xmm0
	vmovsd	%xmm0, 79992(%r13)
	cmpl	%edi, 36(%rsp)
	jle	.L636
.L619:
	movq	312(%rsp), %rax
	subq	%fs:40, %rax
	jne	.L652
	leaq	-40(%rbp), %rsp
	popq	%rbx
	popq	%r12
	popq	%r13
	popq	%r14
	popq	%r15
	popq	%rbp
	.cfi_remember_state
	.cfi_def_cfa 7, 8
	ret
	.p2align 4,,10
	.p2align 3
.L649:
	.cfi_restore_state
	movl	$0, 480000(%r13)
	movl	$0, 480004(%r13)
	jmp	.L625
	.p2align 4,,10
	.p2align 3
.L648:
	leaq	124(%rsp), %rdx
	movq	%r12, %rcx
	leaq	116(%rsp), %rsi
	leaq	112(%rsp), %rdi
	movl	%eax, 124(%rsp)
	call	kmt_
	movl	116(%rsp), %r9d
	movl	-4(%r12), %edx
	movl	112(%rsp), %ecx
	movl	%r9d, %r8d
	subl	%ecx, %r8d
	leal	1(%rdx), %eax
	jmp	.L621
	.p2align 4,,10
	.p2align 3
.L651:
	vmovsd	104(%rsp), %xmm7
	vmulsd	%xmm7, %xmm0, %xmm6
	vmulsd	%xmm7, %xmm1, %xmm3
	vmulsd	%xmm7, %xmm2, %xmm7
	vmovsd	%xmm6, 56(%rsp)
	vunpcklpd	%xmm3, %xmm6, %xmm0
	vmovsd	%xmm3, 48(%rsp)
	vmovsd	%xmm7, 96(%rsp)
	vmovupd	%xmm0, (%r14)
	vmovsd	%xmm7, 16(%r14)
	jmp	.L639
.L650:
	vxorpd	%xmm6, %xmm6, %xmm6
	movq	$0x000000000, (%r14)
	movq	$0x000000000, 8(%r14)
	movq	$0x000000000, 16(%r14)
	vmovsd	%xmm6, %xmm6, %xmm12
	vmovsd	%xmm6, %xmm6, %xmm11
	vmovsd	%xmm6, %xmm6, %xmm10
	jmp	.L638
.L642:
	vxorpd	%xmm2, %xmm2, %xmm2
	movl	%eax, %esi
	vmovsd	%xmm2, %xmm2, %xmm1
	vmovsd	%xmm2, %xmm2, %xmm0
	jmp	.L626
.L643:
	vxorpd	%xmm12, %xmm12, %xmm12
	movl	%eax, %esi
	xorl	%edx, %edx
	vmovsd	%xmm12, %xmm12, %xmm11
	vmovsd	%xmm12, %xmm12, %xmm10
	vmovsd	%xmm12, %xmm12, %xmm9
	vmovsd	%xmm12, %xmm12, %xmm8
	vmovsd	%xmm12, %xmm12, %xmm7
	vmovsd	%xmm12, %xmm12, %xmm6
	jmp	.L637
.L652:
	call	__stack_chk_fail@PLT
	.cfi_endproc
.LFE8:
	.size	cgyration_, .-cgyration_
	.section	.rodata.str1.1
.LC81:
	.string	"BROKEN PBC. PLS CHECK!"
	.text
	.p2align 4
	.globl	update_verlet_list_
	.type	update_verlet_list_, @function
update_verlet_list_:
.LFB17:
	.cfi_startproc
	pushq	%r15
	.cfi_def_cfa_offset 16
	.cfi_offset 15, -16
	movq	%rdi, %r8
	leaq	verl_(%rip), %rcx
	pushq	%r14
	.cfi_def_cfa_offset 24
	.cfi_offset 14, -24
	vxorps	%xmm3, %xmm3, %xmm3
	pushq	%r13
	.cfi_def_cfa_offset 32
	.cfi_offset 13, -32
	pushq	%r12
	.cfi_def_cfa_offset 40
	.cfi_offset 12, -40
	pushq	%rbp
	.cfi_def_cfa_offset 48
	.cfi_offset 6, -48
	pushq	%rbx
	.cfi_def_cfa_offset 56
	.cfi_offset 3, -56
	subq	$776, %rsp
	.cfi_def_cfa_offset 832
	movq	%rsi, 160(%rsp)
	vmovsd	(%r8), %xmm0
	leaq	cmp2_(%rip), %rsi
	vaddsd	7924016+sig_(%rip), %xmm0, %xmm8
	vaddsd	7924008+sig_(%rip), %xmm0, %xmm0
	movq	%fs:40, %rax
	movq	%rax, 760(%rsp)
	xorl	%eax, %eax
	movl	60000004(%rsi), %eax
	movl	540000008(%rsi), %r11d
	vmulsd	%xmm0, %xmm0, %xmm6
	movl	%eax, 216(%rsp)
	movl	$3, %eax
	subl	%r11d, %eax
	movslq	%eax, %rdx
	movl	$0, 60000004(%rsi)
	movl	%edx, 540000008(%rsi)
	movl	36+kier_(%rip), %r9d
	movl	8+bas_(%rip), %esi
	movl	120240016(%rcx), %edi
	vmulsd	%xmm8, %xmm8, %xmm7
	movl	$0, cmap_(%rip)
	movl	$0, cmp2_(%rip)
	movl	$0, 120240016(%rcx)
	movl	%r11d, 120(%rsp)
	movl	%edx, 96(%rsp)
	movl	%esi, 28(%rsp)
	movl	%r9d, 12(%rsp)
	vmovsd	%xmm6, 104(%rsp)
	testl	%esi, %esi
	jle	.L654
	imulq	$15000000, %rdx, %rdx
	movl	120240020(%rcx), %ebx
	vmovsd	plates_(%rip), %xmm6
	movq	%rdx, 48(%rsp)
	movslq	%r11d, %rdx
	imulq	$15000000, %rdx, %rdx
	movl	%ebx, %eax
	vmovsd	%xmm6, 72(%rsp)
	shrl	$31, %eax
	vmovsd	24+kier_(%rip), %xmm6
	addl	%ebx, %eax
	sarl	%eax
	movq	%rdx, 64(%rsp)
	vmovsd	%xmm6, 88(%rsp)
	leal	1(%rsi), %edx
	vmovsd	240000+for_(%rip), %xmm6
	leal	(%rax,%rsi), %r15d
	addl	%edx, %eax
	leaq	pos_(%rip), %r10
	movl	%edx, 24(%rsp)
	movl	%eax, 124(%rsp)
	movl	%eax, %edx
	vmovsd	%xmm6, 16(%rsp)
	movslq	%esi, %rax
	vmovsd	240032+for_(%rip), %xmm6
	leaq	(%r10,%rax,8), %rax
	movl	36+bas_(%rip), %r14d
	movq	%rax, 136(%rsp)
	vmovsd	%xmm6, 32(%rsp)
	movslq	%edx, %rax
	vmovsd	8+plates_(%rip), %xmm6
	leaq	(%r10,%rax,8), %rax
	movl	%ebx, 100(%rsp)
	addl	%esi, %ebx
	movl	%r15d, 200(%rsp)
	movq	%rax, 128(%rsp)
	movl	%r14d, 40(%rsp)
	movl	%ebx, 112(%rsp)
	vmovsd	240024+for_(%rip), %xmm10
	movl	40+kier_(%rip), %r15d
	vmovsd	240008+for_(%rip), %xmm13
	vmovsd	.LC11(%rip), %xmm14
	vmovsd	%xmm6, 80(%rsp)
	movq	%rcx, %r11
	xorl	%r13d, %r13d
	movl	$1, %eax
	movl	$1, %esi
	movl	%r9d, %r14d
	jmp	.L675
	.p2align 4,,10
	.p2align 3
.L656:
	vmovsd	80(%rsp), %xmm6
	vsubsd	%xmm4, %xmm6, %xmm0
	vcomisd	%xmm0, %xmm8
	ja	.L906
.L655:
	incl	%esi
	addq	$8, %r10
	addq	$24, %r11
	cmpl	24(%rsp), %esi
	je	.L907
.L675:
	vmovsd	(%r10), %xmm9
	vmovsd	80000(%r10), %xmm5
	vmovsd	160000(%r10), %xmm4
	movl	40(%rsp), %ebx
	vmovsd	%xmm9, (%r11)
	vmovsd	%xmm5, 8(%r11)
	vmovsd	%xmm4, 16(%r11)
	testl	%ebx, %ebx
	je	.L655
	vsubsd	72(%rsp), %xmm4, %xmm0
	vcomisd	%xmm0, %xmm8
	jbe	.L656
	cmpl	$1, 100(%rsp)
	movl	24(%rsp), %r9d
	jle	.L656
	vmovsd	.LC11(%rip), %xmm6
	movq	%r10, 144(%rsp)
	vsubsd	88(%rsp), %xmm9, %xmm11
	movq	136(%rsp), %r8
	movl	200(%rsp), %r10d
	vmovsd	%xmm6, 56(%rsp)
	jmp	.L665
	.p2align 4,,10
	.p2align 3
.L660:
	incl	%r9d
	addq	$8, %r8
	cmpl	%r9d, %r10d
	jl	.L908
.L665:
	vsubsd	(%r8), %xmm11, %xmm1
	vsubsd	80000(%r8), %xmm5, %xmm0
	vsubsd	160000(%r8), %xmm4, %xmm12
	testl	%r14d, %r14d
	je	.L658
	vmulsd	%xmm1, %xmm10, %xmm15
	vmovsd	56(%rsp), %xmm2
	vmovsd	.LC60(%rip), %xmm6
	vandpd	%xmm15, %xmm2, %xmm2
	vorpd	%xmm2, %xmm6, %xmm6
	vaddsd	%xmm15, %xmm6, %xmm6
	vcvttsd2sil	%xmm6, %edx
	vcvtsi2sdl	%edx, %xmm3, %xmm6
	vfnmadd231sd	16(%rsp), %xmm6, %xmm1
.L658:
	testl	%r15d, %r15d
	je	.L659
	vmulsd	32(%rsp), %xmm0, %xmm15
	vmovsd	.LC60(%rip), %xmm6
	vandpd	%xmm15, %xmm14, %xmm2
	vorpd	%xmm2, %xmm6, %xmm6
	vaddsd	%xmm15, %xmm6, %xmm6
	vcvttsd2sil	%xmm6, %edx
	vcvtsi2sdl	%edx, %xmm3, %xmm6
	vfnmadd231sd	%xmm13, %xmm6, %xmm0
.L659:
	vmulsd	%xmm12, %xmm12, %xmm12
	vfmadd132sd	%xmm1, %xmm12, %xmm1
	vfmadd132sd	%xmm0, %xmm1, %xmm0
	vcomisd	%xmm0, %xmm7
	jbe	.L660
	incl	%r13d
	movslq	%r13d, %rdx
	leaq	(%rdx,%rdx,2), %rdx
	addq	48(%rsp), %rdx
	movl	%esi, -59759996(%rcx,%rdx,4)
	movl	%r9d, -59759992(%rcx,%rdx,4)
	movl	$0, -59759988(%rcx,%rdx,4)
	leaq	-15000001(%rdx), %r12
	cmpl	%eax, %edi
	jl	.L660
	movslq	%eax, %rdx
	leaq	(%rdx,%rdx,2), %rdx
	addq	64(%rsp), %rdx
	jmp	.L664
	.p2align 4,,10
	.p2align 3
.L909:
	testl	%ebp, %ebp
	je	.L663
.L662:
	incl	%eax
	addq	$3, %rdx
	cmpl	%eax, %edi
	jl	.L660
.L664:
	leaq	0(,%rdx,4), %rbx
	cmpl	%esi, -59759996(%rcx,%rdx,4)
	jl	.L662
	movl	-59759992(%rcx,%rbx), %ebx
	sete	%bpl
	movzbl	%bpl, %ebp
	cmpl	%r9d, %ebx
	jl	.L909
.L663:
	cmpl	%r9d, %ebx
	jne	.L660
	testl	%ebp, %ebp
	je	.L660
	movl	-59759988(%rcx,%rdx,4), %edx
	incl	%r9d
	movl	%edx, 240016(%rcx,%r12,4)
	incl	%eax
	addq	$8, %r8
	cmpl	%r9d, %r10d
	jge	.L665
.L908:
	vmovsd	80(%rsp), %xmm6
	movq	144(%rsp), %r10
	vsubsd	%xmm4, %xmm6, %xmm0
	vcomisd	%xmm0, %xmm8
	jbe	.L655
.L906:
	movl	124(%rsp), %r9d
	movl	112(%rsp), %edx
	cmpl	%edx, %r9d
	jg	.L655
	vaddsd	88(%rsp), %xmm9, %xmm9
	movq	%r10, 56(%rsp)
	movq	128(%rsp), %r8
	leal	1(%rdx), %r12d
	jmp	.L674
	.p2align 4,,10
	.p2align 3
.L669:
	incl	%r9d
	addq	$8, %r8
	cmpl	%r12d, %r9d
	je	.L910
.L674:
	vsubsd	-8(%r8), %xmm9, %xmm1
	vsubsd	79992(%r8), %xmm5, %xmm0
	vsubsd	159992(%r8), %xmm4, %xmm2
	testl	%r14d, %r14d
	je	.L667
	vmulsd	%xmm1, %xmm10, %xmm11
	vmovsd	.LC60(%rip), %xmm6
	vandpd	%xmm11, %xmm14, %xmm12
	vorpd	%xmm12, %xmm6, %xmm6
	vaddsd	%xmm11, %xmm6, %xmm6
	vcvttsd2sil	%xmm6, %edx
	vcvtsi2sdl	%edx, %xmm3, %xmm11
	vfnmadd231sd	16(%rsp), %xmm11, %xmm1
.L667:
	testl	%r15d, %r15d
	je	.L668
	vmulsd	32(%rsp), %xmm0, %xmm11
	vmovsd	.LC60(%rip), %xmm6
	vandpd	%xmm11, %xmm14, %xmm12
	vorpd	%xmm12, %xmm6, %xmm6
	vaddsd	%xmm11, %xmm6, %xmm6
	vcvttsd2sil	%xmm6, %edx
	vcvtsi2sdl	%edx, %xmm3, %xmm11
	vfnmadd231sd	%xmm11, %xmm13, %xmm0
.L668:
	vmulsd	%xmm2, %xmm2, %xmm2
	vfmadd132sd	%xmm1, %xmm2, %xmm1
	vfmadd132sd	%xmm0, %xmm1, %xmm0
	vcomisd	%xmm0, %xmm7
	jbe	.L669
	incl	%r13d
	movslq	%r13d, %rdx
	leaq	(%rdx,%rdx,2), %rdx
	addq	48(%rsp), %rdx
	movl	%esi, -59759996(%rcx,%rdx,4)
	movl	%r9d, -59759992(%rcx,%rdx,4)
	movl	$0, -59759988(%rcx,%rdx,4)
	leaq	-15000001(%rdx), %rbp
	cmpl	%eax, %edi
	jl	.L669
	movslq	%eax, %rdx
	leaq	(%rdx,%rdx,2), %rdx
	addq	64(%rsp), %rdx
	jmp	.L673
	.p2align 4,,10
	.p2align 3
.L911:
	testl	%ebx, %ebx
	je	.L672
.L671:
	incl	%eax
	addq	$3, %rdx
	cmpl	%eax, %edi
	jl	.L669
.L673:
	leaq	0(,%rdx,4), %r10
	cmpl	%esi, -59759996(%rcx,%rdx,4)
	jl	.L671
	movl	-59759992(%rcx,%r10), %r10d
	sete	%bl
	movzbl	%bl, %ebx
	cmpl	%r9d, %r10d
	jl	.L911
.L672:
	cmpl	%r9d, %r10d
	jne	.L669
	testl	%ebx, %ebx
	je	.L669
	movl	-59759988(%rcx,%rdx,4), %edx
	incl	%r9d
	movl	%edx, 240016(%rcx,%rbp,4)
	incl	%eax
	addq	$8, %r8
	cmpl	%r12d, %r9d
	jne	.L674
.L910:
	movq	56(%rsp), %r10
	incl	%esi
	addq	$8, %r10
	addq	$24, %r11
	cmpl	24(%rsp), %esi
	jne	.L675
.L907:
	movl	%r13d, 120240016(%rcx)
.L654:
	movl	12(%rsp), %r9d
	testl	%r9d, %r9d
	je	.L676
	vmovsd	.LC80(%rip), %xmm0
	vcomisd	240000+for_(%rip), %xmm0
	ja	.L677
.L676:
	movl	40+kier_(%rip), %eax
	movl	%eax, 24(%rsp)
	testl	%eax, %eax
	je	.L678
	vmovsd	.LC80(%rip), %xmm0
	vcomisd	240008+for_(%rip), %xmm0
	ja	.L677
.L678:
	movl	44+kier_(%rip), %eax
	movl	%eax, 16(%rsp)
	testl	%eax, %eax
	jne	.L679
.L682:
	movl	28(%rsp), %r8d
	testl	%r8d, %r8d
	jle	.L653
	leaq	cmap_(%rip), %rax
	movl	60000004(%rax), %r13d
	movl	66000008(%rax), %eax
	vmovsd	240040+for_(%rip), %xmm6
	movl	%eax, 144(%rsp)
	movl	160004+bon_(%rip), %eax
	vmovsd	%xmm6, 32(%rsp)
	movl	%eax, 220(%rsp)
	movl	80032+ssb_(%rip), %eax
	movq	$1, 40(%rsp)
	movl	%eax, 124(%rsp)
	movl	10004072+nmapi_(%rip), %eax
	movl	$0, 100(%rsp)
	movl	%eax, 128(%rsp)
	movslq	120(%rsp), %rax
	movl	$0, 72(%rsp)
	imulq	$15000000, %rax, %rax
	movl	$1, 192(%rsp)
	vmovsd	240024+for_(%rip), %xmm11
	movq	%rax, 208(%rsp)
	movslq	96(%rsp), %rax
	vmovsd	240000+for_(%rip), %xmm10
	imulq	$15000000, %rax, %rax
	movl	$0, 96(%rsp)
	vmovsd	240032+for_(%rip), %xmm9
	movq	%rax, 136(%rsp)
	movl	32+ssb2_(%rip), %eax
	vmovsd	240008+for_(%rip), %xmm8
	movl	%eax, 204(%rsp)
	movl	80032+misc_(%rip), %eax
	vmovsd	240016+for_(%rip), %xmm6
	movl	%eax, 200(%rsp)
	leaq	40000+sequence_(%rip), %rax
	movq	%rax, 64(%rsp)
	movl	28(%rsp), %eax
	leaq	pos_(%rip), %r11
	incl	%eax
	movq	%rax, 152(%rsp)
	movl	$2, 120(%rsp)
	vmovsd	.LC11(%rip), %xmm13
	movl	$1, %ebx
	.p2align 4,,10
	.p2align 3
.L743:
	movl	120(%rsp), %edi
	movq	40(%rsp), %rsi
	leal	-1(%rdi), %ecx
	movslq	%ecx, %rax
	leaq	bon_(%rip), %r15
	movl	%esi, 80(%rsp)
	movl	%esi, %r14d
	movl	%esi, %edx
	cmpl	%esi, 120000(%r15,%rax,4)
	jge	.L684
	leal	1(%rdi), %eax
	movl	%eax, 120(%rsp)
	movl	%edi, %ecx
.L684:
	movq	40(%rsp), %r15
	movl	80(%rsp), %esi
	leaq	79996+bon_(%rip), %rdi
	movl	(%rdi,%r15,4), %edi
	leal	1(%rsi), %eax
	movl	%eax, 56(%rsp)
	testl	%edi, %edi
	je	.L685
	movl	%esi, %edi
	leal	2(%rsi), %eax
	leaq	80000+bon_(%rip), %rsi
	movl	(%rsi,%r15,4), %r12d
	testl	%r12d, %r12d
	je	.L685
	leal	3(%rdi), %eax
.L685:
	cmpl	28(%rsp), %eax
	jg	.L687
	movslq	%ecx, %rcx
	leaq	bon_(%rip), %rsi
	movl	120000(%rsi,%rcx,4), %esi
	movq	160(%rsp), %rdi
	movl	%esi, 48(%rsp)
	movl	(%rdi), %r12d
	cmpl	%eax, %esi
	jge	.L901
	leaq	sequence_(%rip), %rbp
.L688:
	cltq
	leaq	pos_(%rip), %rdi
	leaq	0(%rbp,%rax,4), %rsi
	leaq	(%rdi,%rax,8), %rcx
	jmp	.L742
	.p2align 4,,10
	.p2align 3
.L715:
	incq	%rax
	addq	$4, %rsi
	addq	$8, %rcx
	cmpl	%eax, 28(%rsp)
	jl	.L687
.L742:
	cmpl	%eax, %r14d
	movl	%eax, %r8d
	cmovge	%r14d, %r8d
	movl	%eax, %r9d
	movl	%eax, %edi
	cmpl	%r8d, %r12d
	jg	.L715
	vmovsd	(%r11), %xmm1
	vmovsd	80000(%r11), %xmm2
	vmovsd	160000(%r11), %xmm0
	movl	12(%rsp), %r15d
	vsubsd	-8(%rcx), %xmm1, %xmm1
	vsubsd	79992(%rcx), %xmm2, %xmm2
	vsubsd	159992(%rcx), %xmm0, %xmm0
	testl	%r15d, %r15d
	je	.L716
	vmulsd	%xmm1, %xmm11, %xmm5
	vmovsd	.LC60(%rip), %xmm4
	vandpd	%xmm5, %xmm13, %xmm12
	vorpd	%xmm12, %xmm4, %xmm4
	vaddsd	%xmm5, %xmm4, %xmm4
	vcvttsd2sil	%xmm4, %r8d
	vcvtsi2sdl	%r8d, %xmm3, %xmm4
	vfnmadd231sd	%xmm4, %xmm10, %xmm1
.L716:
	movl	24(%rsp), %ebp
	testl	%ebp, %ebp
	je	.L717
	vmulsd	%xmm2, %xmm9, %xmm5
	vmovsd	.LC60(%rip), %xmm4
	vandpd	%xmm5, %xmm13, %xmm12
	vorpd	%xmm12, %xmm4, %xmm4
	vaddsd	%xmm5, %xmm4, %xmm4
	vcvttsd2sil	%xmm4, %r8d
	vcvtsi2sdl	%r8d, %xmm3, %xmm4
	vfnmadd231sd	%xmm4, %xmm8, %xmm2
.L717:
	movl	16(%rsp), %r10d
	testl	%r10d, %r10d
	je	.L718
	vmulsd	32(%rsp), %xmm0, %xmm5
	vmovsd	.LC60(%rip), %xmm4
	vandpd	%xmm5, %xmm13, %xmm12
	vorpd	%xmm12, %xmm4, %xmm4
	vaddsd	%xmm5, %xmm4, %xmm4
	vcvttsd2sil	%xmm4, %r8d
	vcvtsi2sdl	%r8d, %xmm3, %xmm4
	vfnmadd231sd	%xmm4, %xmm6, %xmm0
.L718:
	vmulsd	%xmm2, %xmm2, %xmm2
	vfmadd132sd	%xmm1, %xmm2, %xmm1
	vfmadd132sd	%xmm0, %xmm1, %xmm0
	vcomisd	%xmm0, %xmm7
	jbe	.L715
	cmpl	%ebx, %r13d
	jl	.L739
	movslq	%ebx, %r8
	leaq	cmap_(%rip), %r15
	leaq	(%r8,%r8,2), %r8
	leaq	(%r15,%r8,4), %r8
	movl	%eax, %r15d
	.p2align 4,,10
	.p2align 3
.L740:
	cmpl	%edx, 59999996(%r8)
	jl	.L737
	movl	60000000(%r8), %r10d
	sete	%bpl
	movzbl	%bpl, %ebp
	cmpl	%eax, %r10d
	jge	.L755
	testl	%ebp, %ebp
	je	.L755
.L737:
	incl	%ebx
	addq	$12, %r8
	cmpl	%ebx, %r13d
	jge	.L740
.L739:
	movl	%eax, %r15d
	cmpl	%eax, 56(%rsp)
	je	.L721
	movq	64(%rsp), %r10
	movl	39996(%rsi), %r8d
	movl	(%r10), %r10d
	movl	%r8d, 88(%rsp)
	cmpl	%eax, 48(%rsp)
	jl	.L722
	movl	144(%rsp), %r8d
	testl	%r8d, %r8d
	je	.L723
	subl	80(%rsp), %r9d
	movl	%r9d, %r8d
	sarl	$31, %r8d
	xorl	%r8d, %r9d
	subl	%r8d, %r9d
	cmpl	$4, %r9d
	je	.L912
.L722:
	xorl	%r9d, %r9d
	cmpl	$4, 88(%rsp)
	sete	%r9b
	xorl	%r8d, %r8d
	cmpl	$4, %r10d
	sete	%r8b
	andl	%r9d, %r8d
	je	.L725
	movl	124(%rsp), %r9d
	testl	%r9d, %r9d
	jne	.L721
.L725:
	incl	72(%rsp)
	movq	136(%rsp), %rbp
	movslq	72(%rsp), %r9
	leaq	-15000001(%rbp,%r9), %r9
	salq	$2, %r9
	leaq	1(%r9), %rbp
	movq	%rbp, 176(%rsp)
	leaq	2(%r9), %rbp
	movq	%rbp, 168(%rsp)
	leaq	3(%r9), %rbp
	movq	%rbp, 112(%rsp)
	movl	128(%rsp), %ebp
	testl	%ebp, %ebp
	je	.L913
	leaq	cmp2_(%rip), %rbp
	movl	%r14d, 60000008(%rbp,%r9,4)
	movl	%edi, 60000012(%rbp,%r9,4)
	movl	$0, 60000016(%rbp,%r9,4)
	leal	(%r10,%r10,4), %ebp
	leal	(%r10,%rbp,4), %r10d
	addl	88(%rsp), %r10d
	negl	%r10d
	leaq	cmp2_(%rip), %rbp
	movl	%r10d, 60000020(%rbp,%r9,4)
	movl	204(%rsp), %r10d
	testl	%r10d, %r10d
	je	.L721
.L724:
	testl	%r8d, %r8d
	je	.L731
	movl	124(%rsp), %ebp
	testl	%ebp, %ebp
	je	.L731
	movslq	96(%rsp), %r8
	vmovd	%r14d, %xmm5
	vpinsrd	$1, %edi, %xmm5, %xmm0
	leal	1(%r8), %r9d
	leaq	cmp2_(%rip), %rdi
	leaq	(%r8,%r8,2), %r8
	vmovq	%xmm0, 4(%rdi,%r8,4)
	cmpl	%r15d, 48(%rsp)
	jl	.L735
	movl	$-3, 12(%rdi,%r8,4)
	movl	%r9d, 96(%rsp)
	jmp	.L715
	.p2align 4,,10
	.p2align 3
.L915:
	movq	112(%rsp), %rbp
	cmpl	%eax, 28(%rsp)
	jge	.L688
	.p2align 4,,10
	.p2align 3
.L687:
	incq	40(%rsp)
	addq	$4, 64(%rsp)
	addq	$8, %r11
	movq	40(%rsp), %rax
	cmpq	152(%rsp), %rax
	jne	.L743
	movl	96(%rsp), %eax
	movl	72(%rsp), %esi
	movl	%eax, cmp2_(%rip)
	leaq	cmp2_(%rip), %rax
	movl	%esi, 60000004(%rax)
	movl	100(%rsp), %eax
	movl	%eax, cmap_(%rip)
.L653:
	movq	760(%rsp), %rax
	subq	%fs:40, %rax
	jne	.L914
	addq	$776, %rsp
	.cfi_remember_state
	.cfi_def_cfa_offset 56
	popq	%rbx
	.cfi_def_cfa_offset 48
	popq	%rbp
	.cfi_def_cfa_offset 40
	popq	%r12
	.cfi_def_cfa_offset 32
	popq	%r13
	.cfi_def_cfa_offset 24
	popq	%r14
	.cfi_def_cfa_offset 16
	popq	%r15
	.cfi_def_cfa_offset 8
	ret
	.p2align 4,,10
	.p2align 3
.L901:
	.cfi_restore_state
	movl	28(%rsp), %r15d
	movslq	%eax, %rcx
	cmpl	%r15d, %esi
	vmovsd	.LC11(%rip), %xmm12
	cmovle	%esi, %r15d
	leaq	sequence_(%rip), %rbp
	leaq	0(,%rcx,4), %rsi
	leaq	sdch_(%rip), %r8
	leaq	pos_(%rip), %r10
	leaq	0(%rbp,%rsi), %rdi
	movq	%rbp, 112(%rsp)
	addq	%r8, %rsi
	leaq	(%r10,%rcx,8), %rcx
	vmovsd	%xmm12, %xmm12, %xmm5
	jmp	.L714
	.p2align 4,,10
	.p2align 3
.L689:
	incl	%eax
	addq	$4, %rdi
	addq	$4, %rsi
	addq	$8, %rcx
	cmpl	%r15d, %eax
	jg	.L915
.L714:
	cmpl	%r14d, %eax
	movl	%r14d, %r8d
	cmovge	%eax, %r8d
	cmpl	%r12d, %r8d
	jl	.L689
	vmovsd	(%r11), %xmm1
	vmovsd	80000(%r11), %xmm2
	vmovsd	160000(%r11), %xmm0
	movl	12(%rsp), %ebp
	vsubsd	-8(%rcx), %xmm1, %xmm1
	vsubsd	79992(%rcx), %xmm2, %xmm2
	vsubsd	159992(%rcx), %xmm0, %xmm0
	testl	%ebp, %ebp
	je	.L690
	vmulsd	%xmm1, %xmm11, %xmm14
	vmovsd	.LC60(%rip), %xmm4
	vandpd	%xmm14, %xmm5, %xmm15
	vorpd	%xmm15, %xmm4, %xmm4
	vaddsd	%xmm14, %xmm4, %xmm4
	vcvttsd2sil	%xmm4, %r8d
	vcvtsi2sdl	%r8d, %xmm3, %xmm4
	vfnmadd231sd	%xmm10, %xmm4, %xmm1
.L690:
	movl	24(%rsp), %r10d
	testl	%r10d, %r10d
	je	.L691
	vmulsd	%xmm2, %xmm9, %xmm14
	vmovsd	.LC60(%rip), %xmm4
	vandpd	%xmm14, %xmm5, %xmm15
	vorpd	%xmm15, %xmm4, %xmm4
	vaddsd	%xmm14, %xmm4, %xmm4
	vcvttsd2sil	%xmm4, %r8d
	vcvtsi2sdl	%r8d, %xmm3, %xmm4
	vfnmadd231sd	%xmm8, %xmm4, %xmm2
.L691:
	movl	16(%rsp), %r9d
	testl	%r9d, %r9d
	je	.L692
	vmulsd	32(%rsp), %xmm0, %xmm14
	vmovsd	.LC60(%rip), %xmm4
	vandpd	%xmm14, %xmm12, %xmm15
	vorpd	%xmm15, %xmm4, %xmm4
	vaddsd	%xmm14, %xmm4, %xmm4
	vcvttsd2sil	%xmm4, %r8d
	vcvtsi2sdl	%r8d, %xmm3, %xmm4
	vfnmadd231sd	%xmm6, %xmm4, %xmm0
.L692:
	vmulsd	%xmm2, %xmm2, %xmm2
	vfmadd132sd	%xmm1, %xmm2, %xmm1
	vfmadd132sd	%xmm0, %xmm1, %xmm0
	vcomisd	%xmm0, %xmm7
	jbe	.L689
	cmpl	%ebx, %r13d
	jl	.L694
	movslq	%ebx, %r8
	leaq	(%r8,%r8,2), %r8
	leaq	cmap_(%rip), %r10
	leaq	(%r10,%r8,4), %r8
	.p2align 4,,10
	.p2align 3
.L697:
	cmpl	%edx, 59999996(%r8)
	jl	.L695
	movl	60000000(%r8), %r9d
	sete	%r10b
	movzbl	%r10b, %r10d
	cmpl	%eax, %r9d
	jge	.L696
	testl	%r10d, %r10d
	je	.L696
.L695:
	incl	%ebx
	addq	$12, %r8
	cmpl	%ebx, %r13d
	jge	.L697
.L694:
	cmpl	%eax, 56(%rsp)
	je	.L698
	movq	64(%rsp), %r10
	movl	39996(%rdi), %r9d
	movl	(%r10), %r10d
	movl	%r9d, 88(%rsp)
	cmpl	%eax, 48(%rsp)
	jl	.L699
	movl	144(%rsp), %r8d
	testl	%r8d, %r8d
	je	.L700
	movl	%eax, %r8d
	subl	80(%rsp), %r8d
	movl	%r8d, %r9d
	sarl	$31, %r9d
	xorl	%r9d, %r8d
	subl	%r9d, %r8d
	cmpl	$4, %r8d
	je	.L916
.L699:
	xorl	%r9d, %r9d
	cmpl	$4, %r10d
	sete	%r9b
	xorl	%r8d, %r8d
	cmpl	$4, 88(%rsp)
	sete	%r8b
	andl	%r9d, %r8d
	je	.L701
	movl	124(%rsp), %r9d
	testl	%r9d, %r9d
	jne	.L698
.L701:
	incl	72(%rsp)
	movq	136(%rsp), %rbp
	movslq	72(%rsp), %r9
	leaq	-15000001(%rbp,%r9), %r9
	salq	$2, %r9
	leaq	1(%r9), %rbp
	movq	%rbp, 184(%rsp)
	leaq	2(%r9), %rbp
	movq	%rbp, 168(%rsp)
	leaq	3(%r9), %rbp
	movq	%rbp, 176(%rsp)
	movl	128(%rsp), %ebp
	testl	%ebp, %ebp
	je	.L917
	leaq	cmp2_(%rip), %rbp
	movl	%r14d, 60000008(%rbp,%r9,4)
	movl	%eax, 60000012(%rbp,%r9,4)
	movl	$0, 60000016(%rbp,%r9,4)
	leal	(%r10,%r10,4), %ebp
	leal	(%r10,%rbp,4), %r10d
	addl	88(%rsp), %r10d
	leaq	cmp2_(%rip), %rbp
	movl	%r10d, 60000020(%rbp,%r9,4)
	movl	204(%rsp), %r9d
	testl	%r9d, %r9d
	je	.L698
.L709:
	testl	%r8d, %r8d
	je	.L707
	movl	124(%rsp), %r8d
	testl	%r8d, %r8d
	je	.L707
	movslq	96(%rsp), %r8
	vmovd	%r14d, %xmm1
	leal	1(%r8), %r9d
	vpinsrd	$1, %eax, %xmm1, %xmm0
	leaq	(%r8,%r8,2), %r8
	leaq	cmp2_(%rip), %r10
	vmovq	%xmm0, 4(%r10,%r8,4)
	cmpl	%eax, 48(%rsp)
	jge	.L712
	movl	$-2, 12(%r10,%r8,4)
	movl	%r9d, 96(%rsp)
	jmp	.L689
	.p2align 4,,10
	.p2align 3
.L707:
	vmovsd	104(%rsp), %xmm2
	vcomisd	%xmm0, %xmm2
	jbe	.L689
	movslq	100(%rsp), %r8
	leaq	cmap_(%rip), %r10
	movq	%r8, %r9
	leaq	(%r8,%r8,2), %r8
	movl	%r14d, 4(%r10,%r8,4)
	movl	%eax, 8(%r10,%r8,4)
	movl	$0, 12(%r10,%r8,4)
	leal	1(%r9), %r10d
	movl	%r10d, 100(%rsp)
	jmp	.L689
	.p2align 4,,10
	.p2align 3
.L731:
	vmovsd	104(%rsp), %xmm5
	vcomisd	%xmm0, %xmm5
	jbe	.L715
	movslq	100(%rsp), %r8
	leaq	cmap_(%rip), %r15
	movq	%r8, %r10
	leaq	(%r8,%r8,2), %r8
	movl	%edi, 8(%r15,%r8,4)
	leal	1(%r10), %edi
	movl	%r14d, 4(%r15,%r8,4)
	movl	$0, 12(%r15,%r8,4)
	movl	%edi, 100(%rsp)
	jmp	.L715
.L912:
	movl	220(%rsp), %ebp
	testl	%ebp, %ebp
	jne	.L722
	.p2align 4,,10
	.p2align 3
.L721:
	movl	200(%rsp), %r8d
	testl	%r8d, %r8d
	je	.L731
	movq	40(%rsp), %r9
	leaq	356+sdch_(%rip), %r10
	cmpl	$2, (%r10,%r9,4)
	jle	.L905
	leaq	356+sdch_(%rip), %r9
	cmpl	$2, (%r9,%rax,4)
	jle	.L905
	movslq	96(%rsp), %r8
	vmovd	%r14d, %xmm5
	vpinsrd	$1, %edi, %xmm5, %xmm0
	leal	1(%r8), %r9d
	leaq	cmp2_(%rip), %rdi
	leaq	(%r8,%r8,2), %r8
	vmovq	%xmm0, 4(%rdi,%r8,4)
	cmpl	%r15d, 48(%rsp)
	jl	.L734
	movl	$-5, 12(%rdi,%r8,4)
	movl	%r9d, 96(%rsp)
	jmp	.L715
.L916:
	movl	220(%rsp), %ebp
	testl	%ebp, %ebp
	jne	.L699
	.p2align 4,,10
	.p2align 3
.L698:
	movl	200(%rsp), %r9d
	testl	%r9d, %r9d
	je	.L707
	movq	40(%rsp), %r9
	leaq	356+sdch_(%rip), %r10
	cmpl	$2, (%r10,%r9,4)
	jle	.L904
	cmpl	$2, 356(%rsi)
	jle	.L904
	movslq	96(%rsp), %r8
	vmovd	%r14d, %xmm2
	leal	1(%r8), %r9d
	vpinsrd	$1, %eax, %xmm2, %xmm0
	leaq	(%r8,%r8,2), %r8
	leaq	cmp2_(%rip), %r10
	vmovq	%xmm0, 4(%r10,%r8,4)
	cmpl	%eax, 48(%rsp)
	jl	.L918
	leaq	cmp2_(%rip), %r10
	movl	$-5, 12(%r10,%r8,4)
	movl	%r9d, 96(%rsp)
	jmp	.L689
	.p2align 4,,10
	.p2align 3
.L755:
	cmpl	%r10d, %r15d
	jne	.L739
	testl	%ebp, %ebp
	je	.L739
	movslq	96(%rsp), %r8
	vmovd	%r14d, %xmm5
	movq	%r8, %r15
	vpinsrd	$1, %edi, %xmm5, %xmm0
	leaq	(%r8,%r8,2), %r8
	leaq	cmp2_(%rip), %rdi
	movl	%ebx, 12(%rdi,%r8,4)
	vmovq	%xmm0, 4(%rdi,%r8,4)
	leal	1(%r15), %edi
	movl	%edi, 96(%rsp)
	incl	%ebx
	jmp	.L715
	.p2align 4,,10
	.p2align 3
.L696:
	cmpl	%eax, %r9d
	jne	.L694
	testl	%r10d, %r10d
	je	.L694
	movslq	96(%rsp), %r8
	vmovd	%r14d, %xmm2
	leaq	cmp2_(%rip), %r9
	movq	%r8, %r10
	vpinsrd	$1, %eax, %xmm2, %xmm0
	leaq	(%r8,%r8,2), %r8
	movl	%ebx, 12(%r9,%r8,4)
	vmovq	%xmm0, 4(%r9,%r8,4)
	leal	1(%r10), %r9d
	movl	%r9d, 96(%rsp)
	incl	%ebx
	jmp	.L689
	.p2align 4,,10
	.p2align 3
.L723:
	xorl	%r8d, %r8d
	cmpl	$4, 88(%rsp)
	sete	%r8b
	xorl	%r9d, %r9d
	cmpl	$4, %r10d
	sete	%r9b
	andl	%r9d, %r8d
	jmp	.L724
	.p2align 4,,10
	.p2align 3
.L700:
	xorl	%r8d, %r8d
	cmpl	$4, %r10d
	sete	%r8b
	xorl	%r9d, %r9d
	cmpl	$4, 88(%rsp)
	sete	%r9b
	andl	%r9d, %r8d
	jmp	.L709
	.p2align 4,,10
	.p2align 3
.L904:
	movq	64(%rsp), %r9
	cmpl	$4, (%r9)
	sete	%r9b
	xorl	%r8d, %r8d
	cmpl	$4, 39996(%rdi)
	movzbl	%r9b, %r9d
	sete	%r8b
	andl	%r9d, %r8d
	jmp	.L709
	.p2align 4,,10
	.p2align 3
.L905:
	movq	64(%rsp), %r10
	xorl	%r9d, %r9d
	cmpl	$4, 39996(%rsi)
	sete	%r9b
	xorl	%r8d, %r8d
	cmpl	$4, (%r10)
	sete	%r8b
	andl	%r9d, %r8d
	jmp	.L724
.L917:
	movl	216(%rsp), %ebp
	movl	192(%rsp), %r10d
	cmpl	%r10d, %ebp
	jl	.L703
	movslq	%r10d, %r8
	addq	208(%rsp), %r8
	movl	%r13d, 88(%rsp)
	movq	%rcx, 192(%rsp)
	salq	$2, %r8
	movl	%ebp, %ecx
	movl	%r10d, %r13d
	.p2align 4,,10
	.p2align 3
.L706:
	leaq	cmp2_(%rip), %rbp
	leaq	0(,%r8,4), %r10
	cmpl	%edx, -180000008(%rbp,%r8,4)
	jl	.L704
	movl	-180000004(%rbp,%r10), %r10d
	sete	%bpl
	movzbl	%bpl, %ebp
	cmpl	%eax, %r10d
	jge	.L705
	testl	%ebp, %ebp
	je	.L705
.L704:
	incl	%r13d
	addq	$4, %r8
	cmpl	%r13d, %ecx
	jge	.L706
	movq	192(%rsp), %rcx
	movl	%r13d, 192(%rsp)
	movl	88(%rsp), %r13d
.L703:
	leaq	cmp2_(%rip), %r10
	movl	%r14d, 60000008(%r10,%r9,4)
	movq	184(%rsp), %r9
	movl	%eax, 60000008(%r10,%r9,4)
	movq	168(%rsp), %r9
	movl	$0, 60000008(%r10,%r9,4)
	movq	176(%rsp), %r9
	movl	$1, 60000008(%r10,%r9,4)
	jmp	.L689
.L913:
	movl	216(%rsp), %ebp
	movl	192(%rsp), %r10d
	cmpl	%r10d, %ebp
	jl	.L727
	movslq	%r10d, %r8
	addq	208(%rsp), %r8
	movl	%r13d, 88(%rsp)
	movq	%rax, 184(%rsp)
	salq	$2, %r8
	movl	%r10d, %r13d
	movl	%ebp, %eax
	.p2align 4,,10
	.p2align 3
.L730:
	leaq	cmp2_(%rip), %rbp
	leaq	0(,%r8,4), %r10
	cmpl	%edx, -180000008(%rbp,%r8,4)
	jl	.L728
	movl	-180000004(%rbp,%r10), %r10d
	sete	%bpl
	movzbl	%bpl, %ebp
	cmpl	%r10d, %r15d
	jle	.L753
	testl	%ebp, %ebp
	je	.L753
.L728:
	incl	%r13d
	addq	$4, %r8
	cmpl	%r13d, %eax
	jge	.L730
	movl	%r13d, 192(%rsp)
	movq	184(%rsp), %rax
	movl	88(%rsp), %r13d
.L727:
	leaq	cmp2_(%rip), %r15
	movl	%r14d, 60000008(%r15,%r9,4)
	movq	176(%rsp), %r9
	movl	%edi, 60000008(%r15,%r9,4)
	movq	168(%rsp), %rdi
	movl	$0, 60000008(%r15,%rdi,4)
	movq	112(%rsp), %rdi
	movl	$-1, 60000008(%r15,%rdi,4)
	jmp	.L715
.L735:
	leaq	cmp2_(%rip), %rdi
	movl	$-2, 12(%rdi,%r8,4)
	movl	%r9d, 96(%rsp)
	jmp	.L715
.L712:
	leaq	cmp2_(%rip), %r10
	movl	$-3, 12(%r10,%r8,4)
	movl	%r9d, 96(%rsp)
	jmp	.L689
.L679:
	vmovsd	.LC80(%rip), %xmm0
	vcomisd	240016+for_(%rip), %xmm0
	jbe	.L682
.L677:
	leaq	.LC2(%rip), %rax
	leaq	224(%rsp), %rbp
	movq	%rax, 232(%rsp)
	movl	$33554433, %eax
	salq	$7, %rax
	movq	%rbp, %rdi
	movq	%rax, 224(%rsp)
	movl	$4264, 240(%rsp)
	call	_gfortran_st_write@PLT
	movl	$22, %edx
	leaq	.LC81(%rip), %rsi
	movq	%rbp, %rdi
	call	_gfortran_transfer_character_write@PLT
	movq	%rbp, %rdi
	call	_gfortran_st_write_done@PLT
	xorl	%edx, %edx
	xorl	%esi, %esi
	xorl	%edi, %edi
	call	_gfortran_stop_string@PLT
	.p2align 4,,10
	.p2align 3
.L918:
	movl	$-4, 12(%r10,%r8,4)
	movl	%r9d, 96(%rsp)
	jmp	.L689
.L734:
	leaq	cmp2_(%rip), %rdi
	movl	$-4, 12(%rdi,%r8,4)
	movl	%r9d, 96(%rsp)
	jmp	.L715
.L705:
	movq	192(%rsp), %rcx
	movl	%r13d, 192(%rsp)
	movl	88(%rsp), %r13d
	cmpl	%eax, %r10d
	jne	.L703
	testl	%ebp, %ebp
	je	.L703
	vmovd	%r14d, %xmm2
	leaq	cmp2_(%rip), %r10
	vpinsrd	$1, %eax, %xmm2, %xmm0
	vmovq	%xmm0, 60000008(%r10,%r9,4)
	movl	-180000000(%r10,%r8,4), %r9d
	movq	168(%rsp), %rbp
	incl	192(%rsp)
	movl	%r9d, 60000008(%r10,%rbp,4)
	movq	176(%rsp), %rbp
	movl	-179999996(%r10,%r8,4), %r8d
	movl	%r8d, 60000008(%r10,%rbp,4)
	jmp	.L689
.L753:
	movl	%r13d, 192(%rsp)
	movq	184(%rsp), %rax
	movl	88(%rsp), %r13d
	cmpl	%r10d, %r15d
	jne	.L727
	testl	%ebp, %ebp
	je	.L727
	vmovd	%r14d, %xmm5
	leaq	cmp2_(%rip), %r15
	vpinsrd	$1, %edi, %xmm5, %xmm0
	vmovq	%xmm0, 60000008(%r15,%r9,4)
	movl	-180000000(%r15,%r8,4), %edi
	movq	168(%rsp), %r9
	incl	192(%rsp)
	movl	%edi, 60000008(%r15,%r9,4)
	movq	112(%rsp), %r9
	movl	-179999996(%r15,%r8,4), %edi
	movl	%edi, 60000008(%r15,%r9,4)
	jmp	.L715
.L914:
	call	__stack_chk_fail@PLT
	.cfi_endproc
.LFE17:
	.size	update_verlet_list_, .-update_verlet_list_
	.p2align 4
	.globl	vafm_
	.type	vafm_, @function
vafm_:
.LFB18:
	.cfi_startproc
	pushq	%r15
	.cfi_def_cfa_offset 16
	.cfi_offset 15, -16
	movl	60+wal_(%rip), %r9d
	movq	%rdi, %r11
	pushq	%r14
	.cfi_def_cfa_offset 24
	.cfi_offset 14, -24
	pushq	%r13
	.cfi_def_cfa_offset 32
	.cfi_offset 13, -32
	pushq	%r12
	.cfi_def_cfa_offset 40
	.cfi_offset 12, -40
	movq	%rsi, %r12
	pushq	%rbp
	.cfi_def_cfa_offset 48
	.cfi_offset 6, -48
	movq	%rdx, %rbp
	pushq	%rbx
	.cfi_def_cfa_offset 56
	.cfi_offset 3, -56
	movq	$0x000000000, (%rdi)
	movq	$0x000000000, (%rsi)
	testl	%r9d, %r9d
	je	.L920
	movl	36+bas_(%rip), %r8d
	vxorps	%xmm12, %xmm12, %xmm12
	testl	%r8d, %r8d
	je	.L921
	leaq	verl_(%rip), %rcx
	movl	120240016(%rcx), %edx
	testl	%edx, %edx
	jle	.L989
	vmovsd	240008+for_(%rip), %xmm4
	vmovsd	80000+misc_(%rip), %xmm6
	vmovsd	%xmm4, -40(%rsp)
	vmovsd	wal_(%rip), %xmm4
	vcvttsd2sil	%xmm6, %r14d
	vmovsd	%xmm4, -96(%rsp)
	vmovsd	.LC8(%rip), %xmm4
	vmovsd	24+kier_(%rip), %xmm7
	vdivsd	%xmm6, %xmm4, %xmm6
	vmovq	.LC11(%rip), %xmm11
	movl	120240020(%rcx), %eax
	vxorpd	%xmm11, %xmm7, %xmm5
	vmovsd	%xmm5, -32(%rsp)
	vmovsd	240024+for_(%rip), %xmm5
	movl	%eax, %r10d
	vmovsd	%xmm5, -64(%rsp)
	vmovsd	240000+for_(%rip), %xmm5
	shrl	$31, %r10d
	addl	%eax, %r10d
	vmovsd	%xmm5, -56(%rsp)
	movl	48+wal_(%rip), %eax
	vmovsd	240032+for_(%rip), %xmm5
	movl	%eax, -24(%rsp)
	vmovsd	%xmm5, -48(%rsp)
	movl	44+wal_(%rip), %eax
	vmovsd	64+sig_(%rip), %xmm5
	movl	%eax, -16(%rsp)
	vmovsd	%xmm5, -88(%rsp)
	leaq	cmp2_(%rip), %rax
	vmulsd	cmapi_(%rip), %xmm5, %xmm5
	movslq	540000008(%rax), %rax
	decl	%edx
	imulq	$15000000, %rax, %rax
	vmovsd	0(%rbp), %xmm15
	movl	40+kier_(%rip), %r8d
	vmovsd	%xmm5, -104(%rsp)
	leaq	(%rdx,%rdx,2), %rdx
	vmovsd	.LC83(%rip), %xmm5
	leaq	(%rcx,%rax,4), %rsi
	vxorpd	%xmm13, %xmm13, %xmm13
	addq	%rdx, %rax
	sarl	%r10d
	leaq	12(%rcx), %rdx
	vmulsd	240024+pull_(%rip), %xmm5, %xmm5
	movl	36+kier_(%rip), %r13d
	addl	8+bas_(%rip), %r10d
	vmovsd	%xmm6, -80(%rsp)
	vmovsd	%xmm15, %xmm15, %xmm9
	vmovsd	%xmm7, -72(%rsp)
	movq	%r12, %r15
	movq	%rbp, -8(%rsp)
	leaq	(%rdx,%rax,4), %rbx
	vmovsd	%xmm13, %xmm13, %xmm14
	leaq	pos_(%rip), %rcx
	leaq	for_(%rip), %rdi
	vmovsd	%xmm13, %xmm13, %xmm15
	movq	%r11, %r9
	movl	%r8d, %r12d
	jmp	.L937
	.p2align 4,,10
	.p2align 3
.L992:
	movl	%r11d, %ebp
	sarl	$31, %ebp
	xorl	%ebp, %r11d
	subl	%ebp, %r11d
	incl	%r11d
	cmpl	%r14d, %r11d
	movl	%r11d, %edx
	cmovg	%r14d, %edx
	movl	%edx, -59759976(%rsi)
	cmpl	%r8d, %r10d
	jle	.L929
	incl	-16(%rsp)
.L930:
	vdivsd	%xmm0, %xmm4, %xmm8
	vmovsd	-96(%rsp), %xmm7
	vcomisd	%xmm0, %xmm7
	vmulsd	-88(%rsp), %xmm8, %xmm1
	vmulsd	%xmm1, %xmm1, %xmm10
	vmulsd	%xmm1, %xmm10, %xmm1
	vmulsd	%xmm1, %xmm1, %xmm1
	vmulsd	-80(%rsp), %xmm1, %xmm10
	vmulsd	%xmm5, %xmm10, %xmm10
	jb	.L986
	vmulsd	%xmm1, %xmm5, %xmm10
.L934:
	vmovsd	.LC84(%rip), %xmm0
	vsubsd	%xmm13, %xmm3, %xmm3
	vfnmadd213sd	.LC85(%rip), %xmm1, %xmm0
	vsubsd	%xmm4, %xmm1, %xmm1
	vfmadd231sd	%xmm10, %xmm1, %xmm9
	vmulsd	%xmm8, %xmm0, %xmm0
	vmulsd	%xmm10, %xmm0, %xmm0
	vminsd	.LC82(%rip), %xmm0, %xmm0
	vmaxsd	.LC86(%rip), %xmm0, %xmm0
	vmulsd	%xmm8, %xmm0, %xmm8
	vxorpd	%xmm11, %xmm8, %xmm0
	vmulsd	%xmm2, %xmm0, %xmm2
	vmulsd	%xmm8, %xmm3, %xmm3
	vfnmadd213sd	80000(%rdi,%rax,8), %xmm6, %xmm8
	vaddsd	(%rdi,%rax,8), %xmm2, %xmm0
	vmovsd	%xmm8, 80000(%rdi,%rax,8)
	vmovsd	%xmm0, (%rdi,%rax,8)
	vaddsd	160000(%rdi,%rax,8), %xmm3, %xmm0
	vmovsd	%xmm0, 160000(%rdi,%rax,8)
	cmpl	%r8d, %r10d
	jle	.L935
	addq	$12, %rsi
	vaddsd	%xmm3, %xmm15, %xmm15
	vaddsd	%xmm2, %xmm14, %xmm14
	cmpq	%rsi, %rbx
	je	.L991
.L937:
	movl	-59759980(%rsi), %r8d
	movslq	-59759984(%rsi), %r11
	vmovsd	-72(%rsp), %xmm1
	cmpl	%r8d, %r10d
	jg	.L924
	vmovsd	-32(%rsp), %xmm1
.L924:
	leaq	-1(%r11), %rax
	vmovsd	(%rcx,%rax,8), %xmm0
	movslq	%r8d, %rdx
	vsubsd	-8(%rcx,%rdx,8), %xmm0, %xmm2
	vmovsd	79992(%rcx,%r11,8), %xmm6
	vmovsd	159992(%rcx,%r11,8), %xmm13
	vmovsd	159992(%rcx,%rdx,8), %xmm3
	vsubsd	%xmm1, %xmm2, %xmm2
	vsubsd	79992(%rcx,%rdx,8), %xmm6, %xmm6
	vsubsd	%xmm3, %xmm13, %xmm0
	testl	%r13d, %r13d
	je	.L925
	vmulsd	-64(%rsp), %xmm2, %xmm8
	vmovsd	.LC90(%rip), %xmm7
	vmovsd	.LC60(%rip), %xmm1
	vandpd	%xmm8, %xmm7, %xmm10
	vorpd	%xmm10, %xmm1, %xmm1
	vaddsd	%xmm8, %xmm1, %xmm1
	vcvttsd2sil	%xmm1, %edx
	vcvtsi2sdl	%edx, %xmm12, %xmm1
	vfnmadd231sd	-56(%rsp), %xmm1, %xmm2
.L925:
	testl	%r12d, %r12d
	je	.L926
	vmulsd	-48(%rsp), %xmm6, %xmm8
	vmovsd	.LC90(%rip), %xmm7
	vmovsd	.LC60(%rip), %xmm1
	vandpd	%xmm8, %xmm7, %xmm10
	vorpd	%xmm10, %xmm1, %xmm1
	vaddsd	%xmm8, %xmm1, %xmm1
	vcvttsd2sil	%xmm1, %edx
	vcvtsi2sdl	%edx, %xmm12, %xmm1
	vfnmadd231sd	-40(%rsp), %xmm1, %xmm6
.L926:
	vmulsd	%xmm0, %xmm0, %xmm0
	vmovsd	-104(%rsp), %xmm1
	movl	-59759976(%rsi), %r11d
	vfmadd231sd	%xmm2, %xmm2, %xmm0
	vfmadd231sd	%xmm6, %xmm6, %xmm0
	vsqrtsd	%xmm0, %xmm0, %xmm0
	vcomisd	%xmm0, %xmm1
	jnb	.L992
	testl	%r11d, %r11d
	js	.L993
	movl	$1, %edx
	subl	%r11d, %edx
	cmpl	$0, %edx
	movl	$0, %r11d
	cmovg	%r11d, %edx
	movl	%edx, -59759976(%rsi)
	jmp	.L930
	.p2align 4,,10
	.p2align 3
.L921:
	movl	120004+respul_(%rip), %esi
	leaq	respul_(%rip), %r14
	addl	120000+respul_(%rip), %esi
	testl	%esi, %esi
	jle	.L989
	vmovsd	8+plates_(%rip), %xmm4
	vmovsd	hhar_(%rip), %xmm6
	vmovsd	%xmm4, -96(%rsp)
	vmovsd	plates_(%rip), %xmm4
	vcvtsi2sdl	4+equil_(%rip), %xmm12, %xmm0
	vmovsd	%xmm4, -32(%rsp)
	vaddsd	%xmm6, %xmm6, %xmm4
	vmovsd	24+kier_(%rip), %xmm10
	vmovq	.LC11(%rip), %xmm11
	vmovsd	%xmm4, -64(%rsp)
	vmovsd	.LC8(%rip), %xmm4
	vxorpd	%xmm11, %xmm10, %xmm5
	vdivsd	%xmm0, %xmm4, %xmm3
	vmovsd	%xmm5, -88(%rsp)
	vmovsd	8+hhar_(%rip), %xmm5
	movslq	16+equil_(%rip), %rcx
	vmovsd	%xmm5, -72(%rsp)
	vmovsd	240024+pull_(%rip), %xmm5
	leal	-1(%rsi), %edi
	vmovsd	%xmm5, -48(%rsp)
	movl	44+wal_(%rip), %r15d
	leaq	8(%r14), %rsi
	leaq	(%rsi,%rdi,8), %r10
	leaq	1(%rcx), %rdi
	movl	52+wal_(%rip), %eax
	movq	%rdi, -8(%rsp)
	movl	%r15d, -104(%rsp)
	movl	48+wal_(%rip), %r13d
	movl	56+wal_(%rip), %ebx
	movl	%eax, -56(%rsp)
	leaq	pull_(%rip), %rdx
	movq	%r14, %rax
	leaq	pos_(%rip), %r8
	leaq	for_(%rip), %r9
	vmovsd	%xmm3, -16(%rsp)
	vmovsd	80000+misc_(%rip), %xmm3
	vdivsd	%xmm3, %xmm4, %xmm7
	vmulsd	%xmm5, %xmm7, %xmm5
	vmovsd	%xmm7, -24(%rsp)
	vmovsd	%xmm5, -40(%rsp)
	vmovsd	64+sig_(%rip), %xmm5
	vmulsd	.LC87(%rip), %xmm5, %xmm7
	vmovsd	%xmm7, -80(%rsp)
	.p2align 4,,10
	.p2align 3
.L957:
	movl	120012(%rax), %esi
	testl	%esi, %esi
	je	.L939
	js	.L994
	vmovsd	-96(%rsp), %xmm7
	vmovsd	-88(%rsp), %xmm2
	vaddsd	160000(%rdx), %xmm7, %xmm0
	incl	%r13d
.L941:
	movslq	120016(%rax), %rdi
	vmovsd	159992(%r8,%rdi,8), %xmm8
	vmovsd	79992(%r8,%rdi,8), %xmm9
	vsubsd	%xmm0, %xmm8, %xmm8
	leaq	-1(%rdi), %rcx
	vsubsd	80000(%rdx), %xmm9, %xmm9
	vmulsd	%xmm8, %xmm8, %xmm7
	vmovsd	(%r8,%rcx,8), %xmm1
	vsubsd	(%rdx), %xmm1, %xmm1
	vfmadd231sd	%xmm9, %xmm9, %xmm7
	vsubsd	%xmm2, %xmm1, %xmm1
	vfmadd231sd	%xmm1, %xmm1, %xmm7
	vsqrtsd	%xmm7, %xmm7, %xmm14
	testl	%ebx, %ebx
	je	.L942
	vdivsd	%xmm14, %xmm5, %xmm0
	vmovsd	(%r14,%rcx,8), %xmm15
	vcomisd	-80(%rsp), %xmm14
	vmulsd	%xmm0, %xmm0, %xmm13
	vmulsd	%xmm0, %xmm13, %xmm13
	vmulsd	%xmm13, %xmm13, %xmm13
	vmulsd	%xmm13, %xmm15, %xmm0
	vsubsd	%xmm4, %xmm13, %xmm2
	vfnmadd132sd	.LC74(%rip), %xmm4, %xmm13
	vmulsd	-40(%rsp), %xmm0, %xmm0
	vmulsd	%xmm0, %xmm2, %xmm2
	vmulsd	.LC88(%rip), %xmm0, %xmm0
	vmulsd	.LC83(%rip), %xmm2, %xmm2
	vmulsd	%xmm13, %xmm0, %xmm0
	vdivsd	%xmm14, %xmm0, %xmm0
	jbe	.L987
	vxorpd	%xmm13, %xmm13, %xmm13
	vcomisd	%xmm13, %xmm15
	jbe	.L988
	vsubsd	%xmm4, %xmm15, %xmm15
	vmovsd	%xmm15, (%r14,%rcx,8)
	jmp	.L947
	.p2align 4,,10
	.p2align 3
.L942:
	vmulsd	-72(%rsp), %xmm7, %xmm0
	vmovsd	.LC83(%rip), %xmm15
	movl	-56(%rsp), %edi
	vaddsd	%xmm6, %xmm0, %xmm2
	vfmadd213sd	-64(%rsp), %xmm15, %xmm0
	vmulsd	%xmm7, %xmm2, %xmm2
	vmulsd	%xmm14, %xmm0, %xmm15
	testl	%edi, %edi
	je	.L949
	vmovsd	(%rax), %xmm0
	vcomisd	%xmm0, %xmm3
	jbe	.L950
	vaddsd	%xmm4, %xmm0, %xmm0
	vmovsd	%xmm0, (%rax)
.L950:
	vmovsd	-24(%rsp), %xmm13
	vmulsd	-48(%rsp), %xmm0, %xmm0
	vmulsd	%xmm13, %xmm2, %xmm2
	vmulsd	%xmm13, %xmm15, %xmm15
	vmulsd	%xmm0, %xmm2, %xmm2
	vmulsd	%xmm15, %xmm0, %xmm0
.L947:
	vcomisd	.LC89(%rip), %xmm7
	jbe	.L953
	vdivsd	%xmm14, %xmm0, %xmm0
	vmovsd	.LC86(%rip), %xmm15
	vmovsd	.LC82(%rip), %xmm7
	vcomisd	%xmm0, %xmm15
	ja	.L954
	vxorpd	%xmm11, %xmm0, %xmm7
	vmaxsd	%xmm15, %xmm7, %xmm7
.L954:
	vmulsd	%xmm7, %xmm1, %xmm1
	vmulsd	%xmm7, %xmm8, %xmm8
	vfmadd213sd	80000(%r9,%rcx,8), %xmm9, %xmm7
	vaddsd	(%r9,%rcx,8), %xmm1, %xmm0
	vmovsd	%xmm7, 80000(%r9,%rcx,8)
	vmovsd	%xmm0, (%r9,%rcx,8)
	vaddsd	160000(%r9,%rcx,8), %xmm8, %xmm0
	vmovsd	%xmm0, 160000(%r9,%rcx,8)
	testl	%esi, %esi
	jle	.L955
	vmovsd	(%r11), %xmm0
	vsubsd	%xmm8, %xmm0, %xmm8
	vmovsd	(%r12), %xmm0
	vsubsd	%xmm1, %xmm0, %xmm1
	vmovsd	%xmm8, (%r11)
	vmovsd	%xmm1, (%r12)
.L953:
	vaddsd	0(%rbp), %xmm2, %xmm2
	vmovsd	%xmm2, 0(%rbp)
.L939:
	addq	$8, %rax
	addq	$8, %rdx
	cmpq	%r10, %rax
	jne	.L957
	movl	-104(%rsp), %r15d
	vmovd	%r15d, %xmm6
	vpinsrd	$1, %r13d, %xmm6, %xmm0
	vmovq	%xmm0, 44+wal_(%rip)
.L989:
	popq	%rbx
	.cfi_remember_state
	.cfi_def_cfa_offset 48
	popq	%rbp
	.cfi_def_cfa_offset 40
	popq	%r12
	.cfi_def_cfa_offset 32
	popq	%r13
	.cfi_def_cfa_offset 24
	popq	%r14
	.cfi_def_cfa_offset 16
	popq	%r15
	.cfi_def_cfa_offset 8
	ret
	.p2align 4,,10
	.p2align 3
.L935:
	.cfi_restore_state
	addq	$12, %rsi
	vsubsd	%xmm3, %xmm15, %xmm15
	vsubsd	%xmm2, %xmm14, %xmm14
	cmpq	%rsi, %rbx
	jne	.L937
.L991:
	movq	-8(%rsp), %rbp
	vmovd	-16(%rsp), %xmm5
	vmovsd	%xmm14, %xmm14, %xmm13
	vmovsd	%xmm9, 0(%rbp)
	vmovsd	%xmm15, (%r9)
	vmovsd	%xmm13, (%r15)
	vpinsrd	$1, -24(%rsp), %xmm5, %xmm0
	popq	%rbx
	.cfi_remember_state
	.cfi_def_cfa_offset 48
	popq	%rbp
	.cfi_def_cfa_offset 40
	popq	%r12
	.cfi_def_cfa_offset 32
	popq	%r13
	.cfi_def_cfa_offset 24
	popq	%r14
	.cfi_def_cfa_offset 16
	vmovq	%xmm0, 44+wal_(%rip)
	popq	%r15
	.cfi_def_cfa_offset 8
	ret
	.p2align 4,,10
	.p2align 3
.L986:
	.cfi_restore_state
	movl	%edx, %r11d
	sarl	$31, %r11d
	xorl	%r11d, %edx
	subl	%r11d, %edx
	vcvtsi2sdl	%edx, %xmm12, %xmm0
	vmulsd	%xmm10, %xmm0, %xmm10
	jmp	.L934
	.p2align 4,,10
	.p2align 3
.L929:
	incl	-24(%rsp)
	jmp	.L930
	.p2align 4,,10
	.p2align 3
.L920:
	movslq	120000+respul_(%rip), %rax
	leaq	pos_(%rip), %rcx
	leaq	nat_(%rip), %rdi
	leaq	9999(%rax), %rdx
	vmovsd	(%rcx,%rdx,8), %xmm15
	vmovsd	(%rdi,%rdx,8), %xmm3
	leaq	-1(%rax), %rsi
	vsubsd	%xmm3, %xmm15, %xmm2
	vmovsd	(%rcx,%rsi,8), %xmm13
	vmovsd	(%rdi,%rsi,8), %xmm11
	vmulsd	%xmm2, %xmm2, %xmm2
	vsubsd	%xmm11, %xmm13, %xmm1
	addq	$19999, %rax
	vmovsd	(%rcx,%rax,8), %xmm14
	vmovsd	(%rdi,%rax,8), %xmm12
	vfmadd132sd	%xmm1, %xmm2, %xmm1
	vsubsd	%xmm12, %xmm14, %xmm0
	vmovsd	8+hhar_(%rip), %xmm8
	vmovsd	240024+pull_(%rip), %xmm5
	vmovsd	hhar_(%rip), %xmm7
	vfmadd132sd	%xmm0, %xmm1, %xmm0
	vmovsd	.LC89(%rip), %xmm6
	vaddsd	%xmm7, %xmm7, %xmm9
	vmulsd	%xmm0, %xmm8, %xmm1
	vmulsd	%xmm0, %xmm5, %xmm10
	vcomisd	%xmm6, %xmm0
	vaddsd	%xmm7, %xmm1, %xmm4
	vfmadd213sd	0(%rbp), %xmm4, %xmm10
	vmovsd	%xmm10, 0(%rbp)
	jbe	.L958
	vfmadd132sd	.LC83(%rip), %xmm9, %xmm1
	vsqrtsd	%xmm0, %xmm0, %xmm0
	vsubsd	%xmm15, %xmm3, %xmm3
	vsubsd	%xmm14, %xmm12, %xmm12
	vsubsd	%xmm13, %xmm11, %xmm11
	vmulsd	%xmm5, %xmm1, %xmm1
	leaq	for_(%rip), %rdi
	vmulsd	%xmm0, %xmm1, %xmm1
	vdivsd	%xmm0, %xmm1, %xmm0
	vfmadd213sd	(%rdi,%rsi,8), %xmm0, %xmm11
	vfmadd213sd	(%rdi,%rdx,8), %xmm0, %xmm3
	vfmadd213sd	(%rdi,%rax,8), %xmm12, %xmm0
	vmovsd	%xmm11, (%rdi,%rsi,8)
	vmovsd	%xmm3, (%rdi,%rdx,8)
	vmovsd	%xmm0, (%rdi,%rax,8)
.L958:
	movslq	120004+respul_(%rip), %rax
	vmovsd	80000+pull_(%rip), %xmm1
	leaq	9999(%rax), %rdx
	vaddsd	240008+pull_(%rip), %xmm1, %xmm1
	vmovsd	(%rcx,%rdx,8), %xmm12
	vmovsd	pull_(%rip), %xmm0
	vsubsd	%xmm1, %xmm12, %xmm14
	vaddsd	240000+pull_(%rip), %xmm0, %xmm0
	leaq	-1(%rax), %rsi
	vmulsd	%xmm14, %xmm14, %xmm14
	vmovsd	(%rcx,%rsi,8), %xmm13
	vmovsd	160000+pull_(%rip), %xmm2
	vsubsd	%xmm0, %xmm13, %xmm4
	vaddsd	240016+pull_(%rip), %xmm2, %xmm2
	addq	$19999, %rax
	vfmadd132sd	%xmm4, %xmm14, %xmm4
	vmovsd	(%rcx,%rax,8), %xmm11
	vmovsd	%xmm0, pull_(%rip)
	vsubsd	%xmm2, %xmm11, %xmm3
	vmovsd	%xmm1, 80000+pull_(%rip)
	vmovsd	%xmm2, 160000+pull_(%rip)
	vfmadd132sd	%xmm3, %xmm4, %xmm3
	vmulsd	%xmm3, %xmm8, %xmm8
	vcomisd	%xmm6, %xmm3
	vaddsd	%xmm8, %xmm7, %xmm4
	vmulsd	%xmm3, %xmm5, %xmm7
	vfmadd132sd	%xmm7, %xmm10, %xmm4
	vmovsd	%xmm4, 0(%rbp)
	jbe	.L989
	vfmadd132sd	.LC83(%rip), %xmm9, %xmm8
	vsqrtsd	%xmm3, %xmm3, %xmm3
	vsubsd	%xmm13, %xmm0, %xmm0
	vsubsd	%xmm12, %xmm1, %xmm1
	vsubsd	%xmm11, %xmm2, %xmm2
	vmulsd	%xmm8, %xmm5, %xmm5
	leaq	for_(%rip), %rcx
	vmovsd	16+kier_(%rip), %xmm4
	vmulsd	%xmm3, %xmm5, %xmm5
	vdivsd	%xmm3, %xmm5, %xmm3
	vmovsd	kier_(%rip), %xmm5
	vmulsd	%xmm3, %xmm0, %xmm0
	vmulsd	%xmm3, %xmm1, %xmm1
	vmulsd	%xmm3, %xmm2, %xmm3
	vaddsd	(%rcx,%rsi,8), %xmm0, %xmm2
	vmovsd	%xmm2, (%rcx,%rsi,8)
	vaddsd	(%rcx,%rdx,8), %xmm1, %xmm2
	vmulsd	8+kier_(%rip), %xmm1, %xmm1
	vmovsd	%xmm2, (%rcx,%rdx,8)
	vaddsd	(%rcx,%rax,8), %xmm3, %xmm2
	vfmadd231sd	%xmm0, %xmm5, %xmm1
	vmovsd	%xmm2, (%rcx,%rax,8)
	vmulsd	%xmm0, %xmm4, %xmm0
	vdivsd	%xmm5, %xmm4, %xmm2
	vfmadd231sd	%xmm3, %xmm4, %xmm1
	vmulsd	%xmm4, %xmm4, %xmm4
	vmovsd	%xmm1, (%r11)
	vdivsd	%xmm5, %xmm4, %xmm1
	vfmadd213sd	.LC8(%rip), %xmm2, %xmm2
	vdivsd	%xmm2, %xmm3, %xmm3
	vaddsd	%xmm5, %xmm1, %xmm1
	vdivsd	%xmm1, %xmm0, %xmm1
	vsubsd	%xmm3, %xmm1, %xmm1
	vmovsd	%xmm1, (%r12)
	popq	%rbx
	.cfi_remember_state
	.cfi_def_cfa_offset 48
	popq	%rbp
	.cfi_def_cfa_offset 40
	popq	%r12
	.cfi_def_cfa_offset 32
	popq	%r13
	.cfi_def_cfa_offset 24
	popq	%r14
	.cfi_def_cfa_offset 16
	popq	%r15
	.cfi_def_cfa_offset 8
	ret
	.p2align 4,,10
	.p2align 3
.L994:
	.cfi_restore_state
	vmovsd	-32(%rsp), %xmm7
	incl	-104(%rsp)
	vaddsd	160000(%rdx), %xmm7, %xmm0
	vmovsd	%xmm10, %xmm10, %xmm2
	jmp	.L941
	.p2align 4,,10
	.p2align 3
.L993:
	leal	1(%r11), %edx
	movl	%edx, -59759976(%rsi)
	jmp	.L930
	.p2align 4,,10
	.p2align 3
.L949:
	movq	-8(%rsp), %r15
	leaq	wal_(%rip), %rdi
	vcvtsi2ssl	(%rdi,%r15,4), %xmm12, %xmm13
	vcvtss2sd	%xmm13, %xmm13, %xmm0
	vmulsd	-48(%rsp), %xmm0, %xmm0
	vmulsd	-16(%rsp), %xmm0, %xmm0
	vmulsd	%xmm0, %xmm2, %xmm2
	vmulsd	%xmm0, %xmm15, %xmm0
	jmp	.L947
	.p2align 4,,10
	.p2align 3
.L987:
	vcomisd	%xmm15, %xmm3
	jbe	.L947
	vaddsd	%xmm4, %xmm15, %xmm13
	vmovsd	%xmm13, (%r14,%rcx,8)
	jmp	.L947
	.p2align 4,,10
	.p2align 3
.L955:
	je	.L953
	vaddsd	(%r11), %xmm8, %xmm8
	vaddsd	(%r12), %xmm1, %xmm1
	vmovsd	%xmm8, (%r11)
	vmovsd	%xmm1, (%r12)
	jmp	.L953
	.p2align 4,,10
	.p2align 3
.L988:
	movq	$0x000000000, (%r14,%rcx,8)
	xorl	%esi, %esi
	movl	$0, 120012(%rax)
	jmp	.L947
	.cfi_endproc
.LFE18:
	.size	vafm_, .-vafm_
	.p2align 4
	.globl	afm_
	.type	afm_, @function
afm_:
.LFB19:
	.cfi_startproc
	movslq	120000+respul_(%rip), %rax
	leaq	pos_(%rip), %rcx
	leaq	-1(%rax), %r8
	leaq	nat_(%rip), %rdx
	vmovsd	(%rcx,%r8,8), %xmm7
	vmovsd	(%rdx,%r8,8), %xmm4
	leaq	9999(%rax), %r8
	vmovsd	(%rcx,%r8,8), %xmm9
	vmovsd	(%rdx,%r8,8), %xmm3
	vsubsd	%xmm4, %xmm7, %xmm1
	vsubsd	%xmm3, %xmm9, %xmm2
	addq	$19999, %rax
	vmovsd	(%rcx,%rax,8), %xmm8
	vmulsd	%xmm2, %xmm2, %xmm2
	vmovsd	(%rdx,%rax,8), %xmm6
	vsubsd	%xmm6, %xmm8, %xmm0
	vfmadd132sd	%xmm1, %xmm2, %xmm1
	vmovsd	hhar_(%rip), %xmm2
	vfmadd132sd	%xmm0, %xmm1, %xmm0
	vmulsd	8+hhar_(%rip), %xmm0, %xmm1
	vcomisd	.LC89(%rip), %xmm0
	vaddsd	%xmm2, %xmm1, %xmm5
	vfmadd213sd	(%rsi), %xmm0, %xmm5
	vmovsd	%xmm5, (%rsi)
	jbe	.L996
	vaddsd	%xmm2, %xmm2, %xmm2
	vsqrtsd	%xmm0, %xmm0, %xmm0
	vsubsd	%xmm9, %xmm3, %xmm3
	vfmadd132sd	.LC83(%rip), %xmm2, %xmm1
	vsubsd	%xmm8, %xmm6, %xmm6
	vsubsd	%xmm7, %xmm4, %xmm4
	vmulsd	%xmm0, %xmm1, %xmm1
	vdivsd	%xmm0, %xmm1, %xmm0
	vfmadd213sd	for_(%rip), %xmm0, %xmm4
	vfmadd213sd	80000+for_(%rip), %xmm0, %xmm3
	vfmadd213sd	160000+for_(%rip), %xmm6, %xmm0
	vmovsd	%xmm4, for_(%rip)
	vmovsd	%xmm3, 80000+for_(%rip)
	vmovsd	%xmm0, 160000+for_(%rip)
.L996:
	movslq	120004+respul_(%rip), %rdx
	vmovsd	(%rdi), %xmm0
	vmovsd	kier_(%rip), %xmm1
	leaq	for_(%rip), %rax
	vfmadd213sd	-8(%rax,%rdx,8), %xmm0, %xmm1
	vmovsd	159992(%rax,%rdx,8), %xmm7
	vmovsd	%xmm1, -8(%rax,%rdx,8)
	vmovsd	8+kier_(%rip), %xmm1
	vfmadd213sd	79992(%rax,%rdx,8), %xmm0, %xmm1
	vfmadd132sd	16+kier_(%rip), %xmm7, %xmm0
	vmovsd	%xmm1, 79992(%rax,%rdx,8)
	vmovsd	%xmm0, 159992(%rax,%rdx,8)
	ret
	.cfi_endproc
.LFE19:
	.size	afm_, .-afm_
	.p2align 4
	.globl	make_fcc_
	.type	make_fcc_, @function
make_fcc_:
.LFB20:
	.cfi_startproc
	pushq	%rbp
	.cfi_def_cfa_offset 16
	.cfi_offset 6, -16
	movq	%rsp, %rbp
	.cfi_def_cfa_register 6
	pushq	%r15
	pushq	%r14
	pushq	%r13
	pushq	%r12
	pushq	%rbx
	andq	$-32, %rsp
	.cfi_offset 15, -24
	.cfi_offset 14, -32
	.cfi_offset 13, -40
	.cfi_offset 12, -48
	.cfi_offset 3, -56
	vmovsd	240008+verl_(%rip), %xmm10
	vmovsd	48+plates_(%rip), %xmm4
	vmulsd	.LC91(%rip), %xmm10, %xmm6
	vmovsd	40+plates_(%rip), %xmm0
	vmovsd	%xmm4, -16(%rsp)
	vsubsd	%xmm4, %xmm0, %xmm0
	vmovsd	%xmm6, -24(%rsp)
	vdivsd	%xmm6, %xmm0, %xmm0
	vmovsd	64+plates_(%rip), %xmm6
	vmovsd	%xmm6, -8(%rsp)
	vcvttsd2sil	%xmm0, %eax
	vmovsd	56+plates_(%rip), %xmm0
	vsubsd	%xmm6, %xmm0, %xmm0
	movl	%eax, -68(%rsp)
	vdivsd	%xmm10, %xmm0, %xmm0
	testl	%eax, %eax
	jle	.L1021
	vcvttsd2sil	%xmm0, %edi
	incl	%eax
	vmovsd	plates_(%rip), %xmm14
	movl	%eax, -72(%rsp)
	movl	%edi, %r14d
	leal	-1(%rdi), %eax
	andl	$-8, %r14d
	vmovddup	%xmm10, %xmm5
	movl	%eax, -28(%rsp)
	leal	1(%r14), %eax
	vmovddup	%xmm14, %xmm13
	movslq	8+bas_(%rip), %r15
	leaq	verl_(%rip), %rsi
	movl	%edi, %ecx
	vmovapd	%xmm5, -48(%rsp)
	movl	%eax, -32(%rsp)
	vmovddup	%xmm6, %xmm5
	shrl	$3, %ecx
	vmovapd	%xmm5, -64(%rsp)
	movl	120240020(%rsi), %esi
	vmovapd	%xmm13, %xmm5
	vmovdqa	.LC77(%rip), %ymm12
	vmovsd	%xmm14, %xmm14, %xmm13
	vxorps	%xmm9, %xmm9, %xmm9
	vmovsd	%xmm10, %xmm10, %xmm14
	movq	%r15, %r9
	salq	$6, %rcx
	movl	$1, %r11d
	leaq	pos_(%rip), %rdx
	vpcmpeqd	%ymm11, %ymm11, %ymm11
	vmovapd	%xmm5, %xmm10
	.p2align 4,,10
	.p2align 3
.L1008:
	testl	%edi, %edi
	jle	.L1001
	leal	-1(%r11), %eax
	vcvtsi2sdl	%eax, %xmm9, %xmm0
	movl	%r11d, %eax
	andl	$1, %eax
	vcvtsi2ssl	%eax, %xmm9, %xmm8
	vmovsd	-24(%rsp), %xmm15
	cmpl	$6, -28(%rsp)
	vfmadd213sd	-16(%rsp), %xmm0, %xmm15
	vmulss	.LC92(%rip), %xmm8, %xmm8
	vcvtss2sd	%xmm8, %xmm8, %xmm8
	jbe	.L1017
	movslq	%esi, %rax
	addq	%r15, %rax
	salq	$3, %rax
	vbroadcastsd	-8(%rsp), %ymm4
	vmovdqa	.LC76(%rip), %ymm2
	leaq	(%rdx,%rax), %rbx
	leaq	80000(%rdx,%rax), %r10
	leaq	160000(%rdx,%rax), %r8
	vbroadcastsd	%xmm15, %ymm7
	vbroadcastsd	%xmm8, %ymm6
	vbroadcastsd	%xmm14, %ymm5
	vbroadcastsd	%xmm13, %ymm3
	xorl	%eax, %eax
	.p2align 4,,10
	.p2align 3
.L1004:
	vmovdqa	%ymm2, %ymm0
	vpaddd	%ymm11, %ymm0, %ymm0
	vextracti128	$0x1, %ymm0, %xmm1
	vcvtdq2pd	%xmm1, %ymm1
	vcvtdq2pd	%xmm0, %ymm0
	vaddpd	%ymm6, %ymm1, %ymm1
	vaddpd	%ymm6, %ymm0, %ymm0
	vmovupd	%ymm7, (%rbx,%rax)
	vfmadd132pd	%ymm5, %ymm4, %ymm1
	vfmadd132pd	%ymm5, %ymm4, %ymm0
	vmovupd	%ymm7, 32(%rbx,%rax)
	vpaddd	%ymm12, %ymm2, %ymm2
	vmovupd	%ymm1, 32(%r10,%rax)
	vmovupd	%ymm0, (%r10,%rax)
	vmovupd	%ymm3, (%r8,%rax)
	vmovupd	%ymm3, 32(%r8,%rax)
	addq	$64, %rax
	cmpq	%rcx, %rax
	jne	.L1004
	leal	(%rsi,%r14), %r10d
	cmpl	%r14d, %edi
	je	.L1005
	movl	-32(%rsp), %r8d
	movl	%r14d, %r12d
.L1002:
	movl	%edi, %ebx
	subl	%r12d, %ebx
	leal	-1(%rbx), %eax
	cmpl	$2, %eax
	jbe	.L1006
	movslq	%esi, %rax
	addq	%r15, %rax
	addq	%r12, %rax
	salq	$3, %rax
	vmovddup	%xmm15, %xmm0
	leaq	(%rdx,%rax), %r13
	vmovd	%r8d, %xmm7
	vmovupd	%xmm0, 0(%r13)
	vmovupd	%xmm0, 16(%r13)
	vpshufd	$0, %xmm7, %xmm0
	vpaddd	.LC93(%rip), %xmm0, %xmm0
	vmovddup	%xmm8, %xmm2
	vpshufd	$238, %xmm0, %xmm1
	vcvtdq2pd	%xmm1, %xmm1
	vcvtdq2pd	%xmm0, %xmm0
	vaddpd	%xmm2, %xmm1, %xmm1
	vaddpd	%xmm2, %xmm0, %xmm0
	vmovapd	-48(%rsp), %xmm3
	vmovapd	-64(%rsp), %xmm4
	leaq	80000(%rdx,%rax), %r12
	vfmadd132pd	%xmm3, %xmm4, %xmm0
	vfmadd132pd	%xmm3, %xmm4, %xmm1
	leaq	160000(%rdx,%rax), %rax
	vmovupd	%xmm0, (%r12)
	vmovupd	%xmm1, 16(%r12)
	vmovupd	%xmm10, (%rax)
	vmovupd	%xmm10, 16(%rax)
	movl	%ebx, %eax
	andl	$-4, %eax
	addl	%eax, %r8d
	addl	%eax, %r10d
	cmpl	%eax, %ebx
	je	.L1005
.L1006:
	leal	-1(%r8), %ebx
	vcvtsi2sdl	%ebx, %xmm9, %xmm0
	vmovsd	-8(%rsp), %xmm7
	leal	1(%r9,%r10), %eax
	cltq
	vaddsd	%xmm8, %xmm0, %xmm0
	leal	1(%r8), %ebx
	vmovsd	%xmm15, -8(%rdx,%rax,8)
	vfmadd132sd	%xmm14, %xmm7, %xmm0
	vmovsd	%xmm13, 159992(%rdx,%rax,8)
	vmovsd	%xmm0, 79992(%rdx,%rax,8)
	cmpl	%ebx, %edi
	jl	.L1005
	vcvtsi2sdl	%r8d, %xmm9, %xmm0
	leal	2(%r9,%r10), %eax
	cltq
	addl	$2, %r8d
	vaddsd	%xmm8, %xmm0, %xmm0
	vmovsd	%xmm15, -8(%rdx,%rax,8)
	vmovsd	%xmm13, 159992(%rdx,%rax,8)
	vfmadd132sd	%xmm14, %xmm7, %xmm0
	vmovsd	%xmm0, 79992(%rdx,%rax,8)
	cmpl	%r8d, %edi
	jl	.L1005
	vcvtsi2sdl	%ebx, %xmm9, %xmm0
	leal	3(%r9,%r10), %eax
	cltq
	vmovsd	%xmm15, -8(%rdx,%rax,8)
	vaddsd	%xmm8, %xmm0, %xmm8
	vmovsd	%xmm13, 159992(%rdx,%rax,8)
	vfmadd132sd	%xmm14, %xmm7, %xmm8
	vmovsd	%xmm8, 79992(%rdx,%rax,8)
.L1005:
	addl	%edi, %esi
.L1001:
	incl	%r11d
	cmpl	-72(%rsp), %r11d
	jne	.L1008
	vmovsd	%xmm14, %xmm14, %xmm10
	leaq	verl_(%rip), %rax
	vmovsd	8+plates_(%rip), %xmm14
	movl	%esi, 120240020(%rax)
	vmovddup	%xmm10, %xmm5
	vmovddup	-8(%rsp), %xmm6
	vmovdqa	.LC77(%rip), %ymm12
	vmovapd	%xmm6, -64(%rsp)
	vmovsd	%xmm14, %xmm14, %xmm6
	vmovddup	%xmm14, %xmm13
	xorl	%r11d, %r11d
	vmovsd	%xmm10, %xmm10, %xmm14
	movslq	%r9d, %r15
	vmovapd	%xmm5, -48(%rsp)
	leaq	pos_(%rip), %rdx
	vpcmpeqd	%ymm11, %ymm11, %ymm11
	vmovsd	%xmm6, %xmm6, %xmm10
	.p2align 4,,10
	.p2align 3
.L1016:
	testl	%edi, %edi
	jle	.L1009
	movl	%r11d, %eax
	andl	$1, %eax
	vcvtsi2ssl	%eax, %xmm9, %xmm8
	vcvtsi2sdl	%r11d, %xmm9, %xmm0
	vmovsd	-24(%rsp), %xmm15
	cmpl	$6, -28(%rsp)
	vmulss	.LC92(%rip), %xmm8, %xmm8
	vfmadd213sd	-16(%rsp), %xmm0, %xmm15
	vcvtss2sd	%xmm8, %xmm8, %xmm8
	jbe	.L1018
	movslq	%esi, %rax
	addq	%r15, %rax
	salq	$3, %rax
	vbroadcastsd	-8(%rsp), %ymm4
	vmovdqa	.LC76(%rip), %ymm2
	leaq	(%rdx,%rax), %rbx
	leaq	80000(%rdx,%rax), %r10
	leaq	160000(%rdx,%rax), %r8
	vbroadcastsd	%xmm15, %ymm7
	vbroadcastsd	%xmm8, %ymm6
	vbroadcastsd	%xmm14, %ymm5
	vbroadcastsd	%xmm10, %ymm3
	xorl	%eax, %eax
	.p2align 4,,10
	.p2align 3
.L1012:
	vmovdqa	%ymm2, %ymm0
	vpaddd	%ymm11, %ymm0, %ymm0
	vextracti128	$0x1, %ymm0, %xmm1
	vcvtdq2pd	%xmm1, %ymm1
	vcvtdq2pd	%xmm0, %ymm0
	vaddpd	%ymm6, %ymm1, %ymm1
	vaddpd	%ymm6, %ymm0, %ymm0
	vmovupd	%ymm7, (%rbx,%rax)
	vfmadd132pd	%ymm5, %ymm4, %ymm1
	vfmadd132pd	%ymm5, %ymm4, %ymm0
	vmovupd	%ymm7, 32(%rbx,%rax)
	vpaddd	%ymm12, %ymm2, %ymm2
	vmovupd	%ymm1, 32(%r10,%rax)
	vmovupd	%ymm0, (%r10,%rax)
	vmovupd	%ymm3, (%r8,%rax)
	vmovupd	%ymm3, 32(%r8,%rax)
	addq	$64, %rax
	cmpq	%rcx, %rax
	jne	.L1012
	leal	(%rsi,%r14), %r10d
	cmpl	%r14d, %edi
	je	.L1013
	movl	-32(%rsp), %r8d
	movl	%r14d, %r12d
.L1010:
	movl	%edi, %ebx
	subl	%r12d, %ebx
	leal	-1(%rbx), %eax
	cmpl	$2, %eax
	jbe	.L1014
	movslq	%esi, %rax
	addq	%r15, %rax
	addq	%r12, %rax
	salq	$3, %rax
	vmovddup	%xmm15, %xmm0
	leaq	(%rdx,%rax), %r13
	vmovd	%r8d, %xmm7
	vmovupd	%xmm0, 0(%r13)
	vmovupd	%xmm0, 16(%r13)
	vpshufd	$0, %xmm7, %xmm0
	vpaddd	.LC93(%rip), %xmm0, %xmm0
	vmovddup	%xmm8, %xmm2
	vpshufd	$238, %xmm0, %xmm1
	vcvtdq2pd	%xmm1, %xmm1
	vcvtdq2pd	%xmm0, %xmm0
	vaddpd	%xmm2, %xmm1, %xmm1
	vaddpd	%xmm2, %xmm0, %xmm0
	vmovapd	-48(%rsp), %xmm5
	vmovapd	-64(%rsp), %xmm6
	leaq	80000(%rdx,%rax), %r12
	vfmadd132pd	%xmm5, %xmm6, %xmm0
	vfmadd132pd	%xmm5, %xmm6, %xmm1
	leaq	160000(%rdx,%rax), %rax
	vmovupd	%xmm0, (%r12)
	vmovupd	%xmm1, 16(%r12)
	vmovupd	%xmm13, (%rax)
	vmovupd	%xmm13, 16(%rax)
	movl	%ebx, %eax
	andl	$-4, %eax
	addl	%eax, %r8d
	addl	%eax, %r10d
	cmpl	%eax, %ebx
	je	.L1013
.L1014:
	leal	-1(%r8), %ebx
	vcvtsi2sdl	%ebx, %xmm9, %xmm0
	vmovsd	-8(%rsp), %xmm3
	leal	1(%r9,%r10), %eax
	cltq
	vaddsd	%xmm8, %xmm0, %xmm0
	leal	1(%r8), %ebx
	vmovsd	%xmm15, -8(%rdx,%rax,8)
	vfmadd132sd	%xmm14, %xmm3, %xmm0
	vmovsd	%xmm10, 159992(%rdx,%rax,8)
	vmovsd	%xmm0, 79992(%rdx,%rax,8)
	cmpl	%ebx, %edi
	jl	.L1013
	vcvtsi2sdl	%r8d, %xmm9, %xmm0
	leal	2(%r9,%r10), %eax
	cltq
	addl	$2, %r8d
	vaddsd	%xmm8, %xmm0, %xmm0
	vmovsd	%xmm15, -8(%rdx,%rax,8)
	vmovsd	%xmm10, 159992(%rdx,%rax,8)
	vfmadd132sd	%xmm14, %xmm3, %xmm0
	vmovsd	%xmm0, 79992(%rdx,%rax,8)
	cmpl	%edi, %r8d
	jg	.L1013
	vcvtsi2sdl	%ebx, %xmm9, %xmm0
	leal	3(%r9,%r10), %eax
	cltq
	vmovsd	%xmm15, -8(%rdx,%rax,8)
	vaddsd	%xmm8, %xmm0, %xmm8
	vmovsd	%xmm10, 159992(%rdx,%rax,8)
	vfmadd132sd	%xmm14, %xmm3, %xmm8
	vmovsd	%xmm8, 79992(%rdx,%rax,8)
.L1013:
	addl	%edi, %esi
.L1009:
	incl	%r11d
	cmpl	-68(%rsp), %r11d
	jne	.L1016
	leaq	verl_(%rip), %rax
	movl	%esi, 120240020(%rax)
	vzeroupper
.L1021:
	leaq	-40(%rbp), %rsp
	popq	%rbx
	popq	%r12
	popq	%r13
	popq	%r14
	popq	%r15
	popq	%rbp
	.cfi_remember_state
	.cfi_def_cfa 7, 8
	ret
.L1018:
	.cfi_restore_state
	movl	%esi, %r10d
	xorl	%r12d, %r12d
	movl	$1, %r8d
	jmp	.L1010
.L1017:
	movl	%esi, %r10d
	xorl	%r12d, %r12d
	movl	$1, %r8d
	jmp	.L1002
	.cfi_endproc
.LFE20:
	.size	make_fcc_, .-make_fcc_
	.p2align 4
	.globl	connect_to_wal_
	.type	connect_to_wal_, @function
connect_to_wal_:
.LFB21:
	.cfi_startproc
	pushq	%rbp
	.cfi_def_cfa_offset 16
	.cfi_offset 6, -16
	movq	%rsp, %rbp
	.cfi_def_cfa_register 6
	pushq	%r15
	pushq	%r14
	pushq	%r13
	pushq	%r12
	.cfi_offset 15, -24
	.cfi_offset 14, -32
	.cfi_offset 13, -40
	.cfi_offset 12, -48
	leaq	respul_(%rip), %r12
	pushq	%rbx
	andq	$-32, %rsp
	subq	$96, %rsp
	.cfi_offset 3, -56
	movl	8+bas_(%rip), %ebx
	testl	%ebx, %ebx
	jle	.L1024
	movl	%ebx, %edx
	salq	$3, %rdx
	leaq	160000+pos_(%rip), %rsi
	movq	%r12, %rdi
	call	memcpy@PLT
	leal	-1(%rbx), %eax
	cmpl	$6, %eax
	jbe	.L1034
	movl	%ebx, %edx
	shrl	$3, %edx
	leaq	80000(%r12), %rax
	salq	$5, %rdx
	vmovdqa	.LC76(%rip), %ymm0
	vmovdqa	.LC77(%rip), %ymm2
	addq	%rax, %rdx
	.p2align 4,,10
	.p2align 3
.L1026:
	vmovdqa	%ymm0, %ymm1
	vmovdqa	%ymm1, (%rax)
	addq	$32, %rax
	vpaddd	%ymm2, %ymm0, %ymm0
	cmpq	%rdx, %rax
	jne	.L1026
	movl	%ebx, %edx
	andl	$-8, %edx
	leal	1(%rdx), %eax
	leaq	respul_(%rip), %r12
	cmpl	%edx, %ebx
	je	.L1044
	vzeroupper
.L1025:
	leal	-1(%rax), %edx
	movslq	%edx, %rdx
	leaq	respul_(%rip), %r12
	movl	%eax, 80000(%r12,%rdx,4)
	leal	1(%rax), %edx
	cmpl	%edx, %ebx
	jl	.L1024
	movslq	%eax, %rcx
	movl	%edx, 80000(%r12,%rcx,4)
	leal	2(%rax), %ecx
	cmpl	%ecx, %ebx
	jl	.L1024
	movslq	%edx, %rdx
	movl	%ecx, 80000(%r12,%rdx,4)
	leal	3(%rax), %edx
	cmpl	%edx, %ebx
	jl	.L1024
	movslq	%ecx, %rcx
	movl	%edx, 80000(%r12,%rcx,4)
	leal	4(%rax), %ecx
	cmpl	%ecx, %ebx
	jl	.L1024
	movslq	%edx, %rdx
	movl	%ecx, 80000(%r12,%rdx,4)
	leal	5(%rax), %edx
	cmpl	%edx, %ebx
	jl	.L1024
	movslq	%ecx, %rcx
	addl	$6, %eax
	movl	%edx, 80000(%r12,%rcx,4)
	cmpl	%eax, %ebx
	jl	.L1024
	movslq	%edx, %rdx
	movl	%eax, 80000(%r12,%rdx,4)
.L1024:
	leaq	80000+respul_(%rip), %rdx
	leaq	-80000(%rdx), %rsi
	leaq	8+bas_(%rip), %rdi
	call	sort2_
	movl	120008+respul_(%rip), %eax
	movl	%eax, %esi
	shrl	$31, %esi
	addl	%eax, %esi
	sarl	%esi
	movl	%esi, 120000+respul_(%rip)
	movl	%esi, 120004+respul_(%rip)
	cmpl	$1, %eax
	jle	.L1042
	movl	8+bas_(%rip), %edi
	vmovsd	plates_(%rip), %xmm1
	vmovsd	8+plates_(%rip), %xmm0
	leal	1(%rdi), %ebx
	movl	%edi, 12(%rsp)
	movl	%ebx, 8(%rsp)
	vmovsd	%xmm1, 24(%rsp)
	vmovsd	%xmm0, 16(%rsp)
	cmpl	$15, %eax
	jle	.L1035
	movslq	%edi, %rax
	movl	%esi, %edx
	vbroadcastsd	%xmm0, %ymm0
	leaq	79968(%r12,%rax,4), %rcx
	leaq	-8+pos_(%rip), %r10
	shrl	$3, %edx
	salq	$5, %rdx
	leaq	80000(%r10), %r9
	vbroadcastsd	%xmm1, %ymm1
	vmovapd	%ymm0, 32(%rsp)
	leaq	80000+respul_(%rip), %r11
	leaq	pull_(%rip), %rdi
	movq	%rcx, %rbx
	vmovapd	.LC94(%rip), %ymm0
	vmovdqa	.LC96(%rip), %ymm12
	subq	%rdx, %rbx
	leaq	80000(%r9), %r8
	vmovapd	%ymm1, 64(%rsp)
	movq	%rdi, %rax
	leaq	40012(%r11), %rdx
	.p2align 4,,10
	.p2align 3
.L1030:
	vmovdqa	(%r11), %ymm1
	vmovapd	%ymm0, %ymm4
	vmovapd	%ymm0, %ymm3
	vgatherdpd	%ymm4, (%r10,%xmm1,8), %ymm7
	vgatherdpd	%ymm3, (%r9,%xmm1,8), %ymm5
	vperm2i128	$17, %ymm1, %ymm1, %ymm8
	vmovapd	%ymm0, %ymm4
	vmovapd	%ymm0, %ymm3
	vmovapd	%ymm0, %ymm14
	vgatherdpd	%ymm4, (%r10,%xmm8,8), %ymm6
	vgatherdpd	%ymm3, (%r9,%xmm8,8), %ymm4
	vgatherdpd	%ymm14, (%r8,%xmm1,8), %ymm3
	vmovdqa	.LC95(%rip), %ymm14
	vmovapd	%ymm0, %ymm13
	vgatherdpd	%ymm13, (%r8,%xmm8,8), %ymm2
	vpermd	(%rcx), %ymm14, %ymm8
	vmovapd	64(%rsp), %ymm15
	vmovapd	%ymm0, %ymm9
	vgatherdpd	%ymm9, (%r10,%xmm8,8), %ymm11
	vmovapd	%ymm0, %ymm14
	vperm2i128	$17, %ymm8, %ymm8, %ymm9
	vgatherdpd	%ymm14, (%r10,%xmm9,8), %ymm10
	vsubpd	%ymm15, %ymm3, %ymm3
	vsubpd	%ymm15, %ymm2, %ymm2
	vpermpd	$68, %ymm7, %ymm14
	vpermpd	$68, %ymm11, %ymm15
	vpermpd	$238, %ymm7, %ymm7
	vpermpd	$238, %ymm11, %ymm11
	vshufpd	$12, %ymm11, %ymm7, %ymm7
	vpermpd	$68, %ymm10, %ymm11
	vmovapd	%ymm7, 32(%rax)
	vpermpd	$238, %ymm10, %ymm10
	vpermpd	$68, %ymm6, %ymm7
	vpermpd	$238, %ymm6, %ymm6
	vshufpd	$12, %ymm11, %ymm7, %ymm7
	vshufpd	$12, %ymm10, %ymm6, %ymm6
	vmovapd	%ymm7, 64(%rax)
	vmovapd	%ymm6, 96(%rax)
	vshufpd	$12, %ymm15, %ymm14, %ymm14
	vmovapd	%ymm0, %ymm6
	vmovapd	%ymm14, (%rax)
	vgatherdpd	%ymm6, (%r9,%xmm8,8), %ymm7
	vmovapd	%ymm0, %ymm15
	vgatherdpd	%ymm15, (%r9,%xmm9,8), %ymm6
	vpermpd	$68, %ymm5, %ymm10
	vpermpd	$68, %ymm7, %ymm11
	vpermpd	$238, %ymm5, %ymm5
	vpermpd	$238, %ymm7, %ymm7
	vshufpd	$12, %ymm7, %ymm5, %ymm5
	vpermpd	$68, %ymm6, %ymm7
	vmovapd	%ymm5, 80032(%rax)
	vpermpd	$238, %ymm6, %ymm6
	vpermpd	$68, %ymm4, %ymm5
	vpermpd	$238, %ymm4, %ymm4
	vshufpd	$12, %ymm7, %ymm5, %ymm5
	vshufpd	$12, %ymm6, %ymm4, %ymm4
	vmovapd	%ymm5, 80064(%rax)
	vmovapd	%ymm4, 80096(%rax)
	vmovapd	%ymm0, %ymm7
	vshufpd	$12, %ymm11, %ymm10, %ymm10
	vmovapd	%ymm10, 80000(%rax)
	vgatherdpd	%ymm7, (%r8,%xmm8,8), %ymm5
	vmovapd	32(%rsp), %ymm6
	vmovapd	%ymm0, %ymm7
	vgatherdpd	%ymm7, (%r8,%xmm9,8), %ymm4
	vsubpd	%ymm6, %ymm5, %ymm5
	vsubpd	%ymm6, %ymm4, %ymm4
	vpermpd	$68, %ymm3, %ymm6
	vpermpd	$68, %ymm5, %ymm7
	vpermpd	$238, %ymm3, %ymm3
	vpermpd	$238, %ymm5, %ymm5
	vshufpd	$12, %ymm5, %ymm3, %ymm3
	vpermpd	$68, %ymm4, %ymm5
	vmovapd	%ymm3, 160032(%rax)
	vpermpd	$238, %ymm4, %ymm4
	vpermpd	$68, %ymm2, %ymm3
	vpermpd	$238, %ymm2, %ymm2
	vshufpd	$12, %ymm4, %ymm2, %ymm2
	vmovapd	%ymm2, 160096(%rax)
	vpunpckldq	%ymm8, %ymm1, %ymm2
	vpunpckhdq	%ymm8, %ymm1, %ymm1
	vshufpd	$12, %ymm5, %ymm3, %ymm3
	vmovapd	%ymm3, 160064(%rax)
	vperm2i128	$32, %ymm1, %ymm2, %ymm3
	vpunpckldq	%ymm3, %ymm12, %ymm4
	vperm2i128	$49, %ymm1, %ymm2, %ymm1
	vpunpckhdq	%ymm3, %ymm12, %ymm2
	vperm2i128	$32, %ymm2, %ymm4, %ymm3
	vperm2i128	$49, %ymm2, %ymm4, %ymm2
	vshufpd	$12, %ymm7, %ymm6, %ymm6
	vmovapd	%ymm6, 160000(%rax)
	vmovdqu	%ymm2, 32(%rdx)
	vpunpckldq	%ymm1, %ymm12, %ymm2
	vpunpckhdq	%ymm1, %ymm12, %ymm1
	vmovdqu	%ymm3, (%rdx)
	subq	$32, %rcx
	vperm2i128	$32, %ymm1, %ymm2, %ymm3
	vperm2i128	$49, %ymm1, %ymm2, %ymm1
	vmovdqu	%ymm3, 64(%rdx)
	vmovdqu	%ymm1, 96(%rdx)
	addq	$32, %r11
	subq	$-128, %rdx
	subq	$-128, %rax
	cmpq	%rcx, %rbx
	jne	.L1030
	movl	%esi, %eax
	andl	$-8, %eax
	leal	1(%rax,%rax), %r8d
	leal	1(%rax), %r9d
	cmpl	%eax, %esi
	je	.L1045
	vzeroupper
.L1029:
	movl	%esi, %ebx
	leal	-1(%rsi), %edx
	subl	%eax, %ebx
	subl	%eax, %edx
	movl	%ebx, 64(%rsp)
	cmpl	$2, %edx
	jbe	.L1032
	vmovapd	.LC97(%rip), %xmm0
	vmovdqa	80000(%r12,%rax,4), %xmm1
	leaq	-8+pos_(%rip), %r14
	vmovapd	%xmm0, %xmm4
	vgatherdpd	%xmm4, (%r14,%xmm1,8), %xmm8
	leaq	80000(%r14), %rbx
	vmovapd	%xmm0, %xmm4
	movslq	12(%rsp), %r15
	vgatherdpd	%xmm4, (%rbx,%xmm1,8), %xmm6
	vpshufd	$238, %xmm1, %xmm10
	leaq	160000(%r14), %r11
	vmovapd	%xmm0, %xmm5
	vmovapd	%xmm0, %xmm4
	vmovapd	%xmm0, %xmm3
	vmovapd	%xmm0, %xmm12
	vgatherdpd	%xmm5, (%r14,%xmm10,8), %xmm7
	vmovapd	%xmm0, %xmm13
	vgatherdpd	%xmm4, (%rbx,%xmm10,8), %xmm5
	movq	%rax, %r10
	vgatherdpd	%xmm3, (%r11,%xmm1,8), %xmm4
	leaq	5000(%rax), %rcx
	vgatherdpd	%xmm12, (%r11,%xmm10,8), %xmm3
	leaq	10000(%rax), %rdx
	subq	%rax, %r15
	leaq	79984+respul_(%rip), %rax
	vmovddup	24(%rsp), %xmm2
	salq	$4, %r10
	vsubpd	%xmm2, %xmm4, %xmm4
	vsubpd	%xmm2, %xmm3, %xmm3
	vpshufd	$27, (%rax,%r15,4), %xmm2
	vgatherdpd	%xmm13, (%r14,%xmm2,8), %xmm12
	vpshufd	$238, %xmm2, %xmm10
	vmovapd	%xmm0, %xmm13
	vgatherdpd	%xmm13, (%r14,%xmm10,8), %xmm11
	leaq	(%rdi,%r10), %r13
	vunpcklpd	%xmm12, %xmm8, %xmm13
	vunpckhpd	%xmm12, %xmm8, %xmm8
	vmovapd	%xmm8, 16(%r13)
	vunpcklpd	%xmm11, %xmm7, %xmm8
	vunpckhpd	%xmm11, %xmm7, %xmm7
	vmovapd	%xmm7, 48(%r13)
	vmovapd	%xmm13, 0(%r13)
	vmovapd	%xmm8, 32(%r13)
	vmovapd	%xmm0, %xmm7
	vgatherdpd	%xmm7, (%rbx,%xmm2,8), %xmm8
	vmovapd	%xmm0, %xmm12
	salq	$4, %rcx
	vgatherdpd	%xmm12, (%rbx,%xmm10,8), %xmm7
	addq	%rdi, %rcx
	vunpcklpd	%xmm8, %xmm6, %xmm11
	vunpckhpd	%xmm8, %xmm6, %xmm6
	vmovapd	%xmm6, 16(%rcx)
	vunpcklpd	%xmm7, %xmm5, %xmm6
	vunpckhpd	%xmm7, %xmm5, %xmm5
	vmovddup	16(%rsp), %xmm9
	vmovapd	%xmm11, (%rcx)
	vmovapd	%xmm6, 32(%rcx)
	vmovapd	%xmm5, 48(%rcx)
	vmovapd	%xmm0, %xmm5
	vgatherdpd	%xmm5, (%r11,%xmm2,8), %xmm6
	vsubpd	%xmm9, %xmm6, %xmm6
	vgatherdpd	%xmm0, (%r11,%xmm10,8), %xmm5
	vsubpd	%xmm9, %xmm5, %xmm0
	salq	$4, %rdx
	addq	%rdi, %rdx
	vunpcklpd	%xmm6, %xmm4, %xmm5
	vunpckhpd	%xmm6, %xmm4, %xmm4
	vmovapd	%xmm4, 16(%rdx)
	movl	64(%rsp), %ebx
	vunpcklpd	%xmm0, %xmm3, %xmm4
	vunpckhpd	%xmm0, %xmm3, %xmm3
	vmovdqa	.LC98(%rip), %xmm0
	vmovapd	%xmm3, 48(%rdx)
	vpunpckldq	%xmm2, %xmm1, %xmm3
	leaq	120012(%r12,%r10), %r10
	vpunpckhdq	%xmm2, %xmm1, %xmm1
	movl	%ebx, %eax
	vpunpckldq	%xmm3, %xmm0, %xmm2
	vmovapd	%xmm5, (%rdx)
	vmovapd	%xmm4, 32(%rdx)
	andl	$-4, %eax
	vmovdqu	%xmm2, (%r10)
	vpunpckhdq	%xmm3, %xmm0, %xmm3
	vpunpckldq	%xmm1, %xmm0, %xmm2
	vpunpckhdq	%xmm1, %xmm0, %xmm1
	vmovdqu	%xmm3, 16(%r10)
	vmovdqu	%xmm2, 32(%r10)
	vmovdqu	%xmm1, 48(%r10)
	leal	(%r8,%rax,2), %r8d
	addl	%eax, %r9d
	cmpl	%eax, %ebx
	je	.L1042
.L1032:
	movl	8(%rsp), %r14d
	leal	-1(%r9), %eax
	cltq
	movl	%r14d, %ecx
	movslq	80000(%r12,%rax,4), %rbx
	subl	%r9d, %ecx
	leaq	pos_(%rip), %rax
	movslq	%ecx, %rcx
	movslq	79996(%r12,%rcx,4), %r11
	vmovsd	-8(%rax,%rbx,8), %xmm1
	leal	-1(%r8), %edx
	movslq	%edx, %rdx
	vmovhpd	-8(%rax,%r11,8), %xmm1, %xmm1
	leaq	(%rdx,%rdx), %r10
	vmovsd	159992(%rax,%rbx,8), %xmm0
	movl	$-1, 120012(%r12,%r10,4)
	movl	%ebx, 120016(%r12,%r10,4)
	vmovupd	%xmm1, (%rdi,%rdx,8)
	vmovsd	79992(%rax,%rbx,8), %xmm1
	vmovsd	24(%rsp), %xmm5
	vmovhpd	79992(%rax,%r11,8), %xmm1, %xmm1
	vmovupd	%xmm1, 80000(%rdi,%rdx,8)
	vmovsd	159992(%rax,%r11,8), %xmm1
	vmovsd	16(%rsp), %xmm4
	vsubsd	%xmm5, %xmm0, %xmm0
	vsubsd	%xmm4, %xmm1, %xmm1
	leal	1(%r8), %ecx
	movslq	%ecx, %rcx
	vunpcklpd	%xmm1, %xmm0, %xmm0
	vmovupd	%xmm0, 160000(%rdi,%rdx,8)
	movl	%r11d, 120024(%r12,%r10,4)
	leal	1(%r9), %r11d
	movl	$1, 120020(%r12,%r10,4)
	cmpl	%r11d, %esi
	jl	.L1042
	movslq	%r9d, %rdx
	movslq	80000(%r12,%rdx,4), %rbx
	movl	12(%rsp), %edx
	vmovsd	-8(%rax,%rbx,8), %xmm1
	subl	%r9d, %edx
	movslq	%edx, %rdx
	movslq	79996(%r12,%rdx,4), %r13
	leaq	(%rcx,%rcx), %r10
	vmovhpd	-8(%rax,%r13,8), %xmm1, %xmm1
	vmovsd	159992(%rax,%rbx,8), %xmm0
	movl	$-1, 120012(%r12,%r10,4)
	movl	%ebx, 120016(%r12,%r10,4)
	vmovupd	%xmm1, (%rdi,%rcx,8)
	vmovsd	79992(%rax,%rbx,8), %xmm1
	vsubsd	%xmm5, %xmm0, %xmm0
	vmovhpd	79992(%rax,%r13,8), %xmm1, %xmm1
	vmovupd	%xmm1, 80000(%rdi,%rcx,8)
	vmovsd	159992(%rax,%r13,8), %xmm1
	addl	$2, %r9d
	vsubsd	%xmm4, %xmm1, %xmm1
	vunpcklpd	%xmm1, %xmm0, %xmm0
	vmovupd	%xmm0, 160000(%rdi,%rcx,8)
	movl	$1, 120020(%r12,%r10,4)
	movl	%r13d, 120024(%r12,%r10,4)
	cmpl	%r9d, %esi
	jl	.L1042
	movslq	%r11d, %r11
	movslq	80000(%r12,%r11,4), %rsi
	movl	%r14d, %edx
	vmovsd	159992(%rax,%rsi,8), %xmm0
	subl	%r9d, %edx
	movslq	%edx, %rdx
	movslq	79996(%r12,%rdx,4), %rdx
	vsubsd	%xmm5, %xmm0, %xmm0
	addl	$3, %r8d
	vmovsd	-8(%rax,%rsi,8), %xmm5
	movslq	%r8d, %r8
	leaq	(%r8,%r8), %rcx
	vmovhpd	-8(%rax,%rdx,8), %xmm5, %xmm1
	movl	$-1, 120012(%r12,%rcx,4)
	movl	%esi, 120016(%r12,%rcx,4)
	vmovupd	%xmm1, (%rdi,%r8,8)
	vmovsd	79992(%rax,%rsi,8), %xmm1
	vmovhpd	79992(%rax,%rdx,8), %xmm1, %xmm1
	vmovupd	%xmm1, 80000(%rdi,%r8,8)
	vmovsd	159992(%rax,%rdx,8), %xmm1
	vsubsd	%xmm4, %xmm1, %xmm1
	vunpcklpd	%xmm1, %xmm0, %xmm0
	vmovupd	%xmm0, 160000(%rdi,%r8,8)
	movl	$1, 120020(%r12,%rcx,4)
	movl	%edx, 120024(%r12,%rcx,4)
.L1042:
	leaq	-40(%rbp), %rsp
	popq	%rbx
	popq	%r12
	popq	%r13
	popq	%r14
	popq	%r15
	popq	%rbp
	.cfi_remember_state
	.cfi_def_cfa 7, 8
	ret
	.p2align 4,,10
	.p2align 3
.L1044:
	.cfi_restore_state
	vzeroupper
	jmp	.L1024
	.p2align 4,,10
	.p2align 3
.L1045:
	vzeroupper
	leaq	-40(%rbp), %rsp
	popq	%rbx
	popq	%r12
	popq	%r13
	popq	%r14
	popq	%r15
	popq	%rbp
	.cfi_remember_state
	.cfi_def_cfa 7, 8
	ret
.L1035:
	.cfi_restore_state
	xorl	%eax, %eax
	movl	$1, %r9d
	movl	$1, %r8d
	leaq	pull_(%rip), %rdi
	jmp	.L1029
.L1034:
	movl	$1, %eax
	jmp	.L1025
	.cfi_endproc
.LFE21:
	.size	connect_to_wal_, .-connect_to_wal_
	.p2align 4
	.globl	connect_to_wal_one_by_one_
	.type	connect_to_wal_one_by_one_, @function
connect_to_wal_one_by_one_:
.LFB22:
	.cfi_startproc
	pushq	%r15
	.cfi_def_cfa_offset 16
	.cfi_offset 15, -16
	movslq	120000+respul_(%rip), %rdi
	movslq	120004+respul_(%rip), %rcx
	pushq	%r14
	.cfi_def_cfa_offset 24
	.cfi_offset 14, -24
	movl	8+bas_(%rip), %edx
	leal	1(%rdi), %r14d
	pushq	%r13
	.cfi_def_cfa_offset 32
	.cfi_offset 13, -32
	subl	%ecx, %edx
	pushq	%r12
	.cfi_def_cfa_offset 40
	.cfi_offset 12, -40
	pushq	%rbp
	.cfi_def_cfa_offset 48
	.cfi_offset 6, -48
	pushq	%rbx
	.cfi_def_cfa_offset 56
	.cfi_offset 3, -56
	cmpl	%edx, %r14d
	jg	.L1062
	vmovsd	wal_(%rip), %xmm1
	vmovsd	plates_(%rip), %xmm4
	vmovsd	8+plates_(%rip), %xmm3
	vaddsd	%xmm1, %xmm4, %xmm2
	vsubsd	%xmm1, %xmm3, %xmm1
	movslq	%r14d, %rax
	leaq	79996+respul_(%rip), %rbx
	leaq	pos_(%rip), %r10
	.p2align 4,,10
	.p2align 3
.L1053:
	movslq	(%rbx,%rax,4), %r9
	leaq	-1(%rax), %rbp
	leaq	19999(%r9), %r11
	vmovsd	(%r10,%r11,8), %xmm0
	movq	%r9, %rsi
	vcomisd	%xmm0, %xmm2
	leaq	-1(%r9), %r8
	jbe	.L1059
	leaq	respul_(%rip), %rdx
	leaq	20000(%rdi), %r12
	addq	%rdi, %rdi
	vcomisd	%xmm1, %xmm0
	movl	(%rdx,%r12,4), %r15d
	movl	%r14d, %r13d
	movl	%r15d, (%rbx,%rax,4)
	movl	%r9d, (%rdx,%r12,4)
	movl	$-1, 120012(%rdx,%rdi,4)
	movl	%r9d, 120016(%rdx,%rdi,4)
	jbe	.L1064
.L1054:
	leal	1(%rcx), %eax
	movl	%eax, 120004+respul_(%rip)
	leaq	20000(%rcx), %rax
	movl	(%rdx,%rax,4), %edi
	addq	%rcx, %rcx
	vmovsd	(%r10,%r8,8), %xmm1
	movl	%edi, 80000(%rdx,%rbp,4)
	movl	$1, 120012(%rdx,%rcx,4)
	movl	%esi, (%rdx,%rax,4)
	movl	%esi, 120016(%rdx,%rcx,4)
	leaq	pull_(%rip), %rax
	leaq	10000(%r8), %rcx
	vsubsd	%xmm3, %xmm0, %xmm0
	vmovsd	%xmm1, (%rax,%r8,8)
	movl	%r13d, 120000+respul_(%rip)
	vmovsd	(%r10,%rcx,8), %xmm1
	vmovsd	%xmm0, 160000(%rax,%r8,8)
	vmovsd	%xmm1, (%rax,%rcx,8)
.L1052:
	movq	$0x000000000, (%rdx,%r8,8)
.L1062:
	popq	%rbx
	.cfi_remember_state
	.cfi_def_cfa_offset 48
	popq	%rbp
	.cfi_def_cfa_offset 40
	popq	%r12
	.cfi_def_cfa_offset 32
	popq	%r13
	.cfi_def_cfa_offset 24
	popq	%r14
	.cfi_def_cfa_offset 16
	popq	%r15
	.cfi_def_cfa_offset 8
	ret
	.p2align 4,,10
	.p2align 3
.L1059:
	.cfi_restore_state
	vcomisd	%xmm1, %xmm0
	ja	.L1065
	incq	%rax
	cmpl	%eax, %edx
	jge	.L1053
	popq	%rbx
	.cfi_remember_state
	.cfi_def_cfa_offset 48
	popq	%rbp
	.cfi_def_cfa_offset 40
	popq	%r12
	.cfi_def_cfa_offset 32
	popq	%r13
	.cfi_def_cfa_offset 24
	popq	%r14
	.cfi_def_cfa_offset 16
	movl	%edi, 120000+respul_(%rip)
	popq	%r15
	.cfi_def_cfa_offset 8
	ret
.L1065:
	.cfi_restore_state
	movl	%edi, %r13d
	leaq	respul_(%rip), %rdx
	jmp	.L1054
.L1064:
	vmovsd	(%r10,%r8,8), %xmm1
	leaq	pull_(%rip), %rax
	addq	$9999, %r9
	vsubsd	%xmm4, %xmm0, %xmm0
	vmovsd	%xmm1, (%rax,%r8,8)
	vmovsd	(%r10,%r9,8), %xmm1
	movl	%r14d, 120000+respul_(%rip)
	vmovsd	%xmm1, (%rax,%r9,8)
	vmovsd	%xmm0, (%rax,%r11,8)
	jmp	.L1052
	.cfi_endproc
.LFE22:
	.size	connect_to_wal_one_by_one_, .-connect_to_wal_one_by_one_
	.p2align 4
	.globl	evalangles_
	.type	evalangles_, @function
evalangles_:
.LFB23:
	.cfi_startproc
	pushq	%r15
	.cfi_def_cfa_offset 16
	.cfi_offset 15, -16
	pushq	%r14
	.cfi_def_cfa_offset 24
	.cfi_offset 14, -24
	pushq	%r13
	.cfi_def_cfa_offset 32
	.cfi_offset 13, -32
	pushq	%r12
	.cfi_def_cfa_offset 40
	.cfi_offset 12, -40
	pushq	%rbp
	.cfi_def_cfa_offset 48
	.cfi_offset 6, -48
	pushq	%rbx
	.cfi_def_cfa_offset 56
	.cfi_offset 3, -56
	subq	$280, %rsp
	.cfi_def_cfa_offset 336
	movl	8+bas_(%rip), %r14d
	movq	%rdi, 24(%rsp)
	movq	%rsi, 104(%rsp)
	movq	%rdx, 128(%rsp)
	cmpl	$2, %r14d
	jle	.L1102
	vmovsd	.LC8(%rip), %xmm3
	movl	80020+chiral_(%rip), %eax
	vdivsd	2592144+mr_(%rip), %xmm3, %xmm6
	vmovsd	ang_(%rip), %xmm3
	movl	%eax, 4(%rsp)
	vmovsd	%xmm3, 136(%rsp)
	vmulsd	.LC99(%rip), %xmm6, %xmm3
	movl	2592152+mr_(%rip), %eax
	leal	-2(%r14), %r12d
	movl	%eax, 96(%rsp)
	leaq	80000+bon_(%rip), %r13
	leaq	240000+pos_(%rip), %rax
	movl	%r14d, 16(%rsp)
	vmovq	.LC11(%rip), %xmm9
	movq	%r12, %r14
	vmovsd	%xmm6, 112(%rsp)
	leaq	for_(%rip), %rbp
	xorl	%ebx, %ebx
	leaq	4(%r13), %r15
	vmovsd	%xmm3, 120(%rsp)
	movq	%rax, %r12
	jmp	.L1078
	.p2align 4,,10
	.p2align 3
.L1071:
	incq	%rbx
	addq	$8, %rbp
	addq	$48, %r12
	cmpq	%r14, %rbx
	je	.L1104
.L1078:
	movl	0(%r13,%rbx,4), %r8d
	testl	%r8d, %r8d
	je	.L1071
	movl	(%r15,%rbx,4), %edi
	testl	%edi, %edi
	je	.L1071
	vmovsd	8(%r12), %xmm7
	vmovsd	56(%r12), %xmm11
	vmulsd	%xmm7, %xmm7, %xmm8
	vmulsd	%xmm11, %xmm11, %xmm5
	vmovsd	(%r12), %xmm12
	vmovsd	48(%r12), %xmm10
	vmulsd	%xmm7, %xmm11, %xmm1
	vfmadd231sd	%xmm12, %xmm12, %xmm8
	vfmadd231sd	%xmm10, %xmm10, %xmm5
	vmovsd	16(%r12), %xmm4
	vmovsd	64(%r12), %xmm3
	vfmadd231sd	%xmm12, %xmm10, %xmm1
	vfmadd231sd	%xmm4, %xmm4, %xmm8
	vfmadd231sd	%xmm3, %xmm3, %xmm5
	vmovsd	%xmm4, 56(%rsp)
	vmovsd	%xmm7, 88(%rsp)
	vfmadd231sd	%xmm4, %xmm3, %xmm1
	vsqrtsd	%xmm8, %xmm8, %xmm8
	vsqrtsd	%xmm5, %xmm5, %xmm5
	vmovsd	%xmm12, 80(%rsp)
	vmovsd	%xmm11, 72(%rsp)
	vmulsd	%xmm8, %xmm5, %xmm0
	vxorpd	%xmm9, %xmm1, %xmm1
	vmovsd	%xmm10, 64(%rsp)
	vmovsd	%xmm3, 48(%rsp)
	vmovsd	%xmm8, 40(%rsp)
	vdivsd	%xmm0, %xmm1, %xmm1
	vmovsd	%xmm5, 32(%rsp)
	vminsd	.LC8(%rip), %xmm1, %xmm1
	vmaxsd	.LC9(%rip), %xmm1, %xmm1
	vmovsd	%xmm1, %xmm1, %xmm0
	vmovsd	%xmm1, 8(%rsp)
	call	acos@PLT
	vmovsd	8(%rsp), %xmm1
	vxorpd	%xmm4, %xmm4, %xmm4
	vcomisd	%xmm4, %xmm1
	vmovq	.LC11(%rip), %xmm9
	vmovsd	%xmm0, %xmm0, %xmm6
	je	.L1089
	vmovsd	.LC8(%rip), %xmm4
	vmovsd	40(%rsp), %xmm8
	vmovsd	32(%rsp), %xmm5
	vdivsd	%xmm8, %xmm4, %xmm8
	vmovsd	80(%rsp), %xmm12
	vmovsd	72(%rsp), %xmm11
	vmovsd	48(%rsp), %xmm3
	vmovsd	480048(%r12), %xmm13
	vmovsd	480056(%r12), %xmm15
	vmovsd	64(%rsp), %xmm10
	vmovsd	88(%rsp), %xmm7
	vdivsd	%xmm5, %xmm4, %xmm5
	vmovsd	56(%rsp), %xmm4
	vmulsd	%xmm8, %xmm12, %xmm12
	vmulsd	%xmm8, %xmm4, %xmm4
	vmulsd	%xmm8, %xmm7, %xmm7
	vmulsd	%xmm4, %xmm15, %xmm1
	vmulsd	%xmm5, %xmm11, %xmm2
	vmovsd	480064(%r12), %xmm11
	vmulsd	%xmm5, %xmm3, %xmm3
	vmulsd	%xmm12, %xmm11, %xmm0
	vmulsd	%xmm5, %xmm10, %xmm10
	vfnmadd231sd	%xmm11, %xmm7, %xmm1
	vmulsd	%xmm7, %xmm13, %xmm7
	vfnmadd132sd	%xmm13, %xmm0, %xmm4
	vmulsd	%xmm3, %xmm15, %xmm0
	vmulsd	%xmm1, %xmm8, %xmm1
	vfnmadd132sd	%xmm15, %xmm7, %xmm12
	vmulsd	%xmm4, %xmm8, %xmm4
	vfmsub231sd	%xmm2, %xmm11, %xmm0
	vmulsd	%xmm11, %xmm10, %xmm11
	vmulsd	%xmm2, %xmm13, %xmm2
	vmulsd	%xmm12, %xmm8, %xmm12
	vmulsd	%xmm0, %xmm5, %xmm0
	vfmsub132sd	%xmm13, %xmm11, %xmm3
	vfmsub132sd	%xmm10, %xmm2, %xmm15
	vxorpd	%xmm9, %xmm0, %xmm7
	vmulsd	%xmm3, %xmm5, %xmm3
	vmulsd	%xmm15, %xmm5, %xmm15
	vsubsd	%xmm1, %xmm0, %xmm0
	vxorpd	%xmm9, %xmm3, %xmm2
	vxorpd	%xmm9, %xmm15, %xmm11
	vsubsd	%xmm4, %xmm3, %xmm3
	vsubsd	%xmm12, %xmm15, %xmm15
.L1073:
	movl	4(%rsp), %esi
	leaq	8+angtemp_(%rip), %rax
	vmovsd	%xmm6, (%rax,%rbx,8)
	testl	%esi, %esi
	je	.L1071
	leaq	160000+angnat_(%rip), %rax
	movl	(%rax,%rbx,4), %ecx
	testl	%ecx, %ecx
	jne	.L1105
.L1074:
	vmovdqa	.LC101(%rip), %xmm5
	leaq	40008+sequence_(%rip), %rax
	vmovd	(%rax,%rbx,4), %xmm8
	subq	$4, %rax
	vmovdqa	%xmm5, %xmm13
	vpminsd	%xmm5, %xmm8, %xmm8
	vmovd	(%rax,%rbx,4), %xmm5
	vpminsd	%xmm13, %xmm5, %xmm5
	movl	96(%rsp), %eax
	vmovd	%xmm8, %esi
	vmovd	%xmm5, %edx
	movslq	%esi, %rsi
	movslq	%edx, %rdx
	testl	%eax, %eax
	je	.L1075
	vmulsd	112(%rsp), %xmm6, %xmm6
	imulq	$54003, %rsi, %rsi
	imulq	$18001, %rdx, %rdx
	vxorpd	%xmm5, %xmm5, %xmm5
	vcvttsd2sil	%xmm6, %ecx
	addq	%rsi, %rdx
	leaq	mr_(%rip), %rsi
	vcvtsi2sdl	%ecx, %xmm5, %xmm5
	movslq	%ecx, %rdi
	incl	%ecx
	movslq	%ecx, %rcx
	addq	%rdx, %rdi
	addq	%rdx, %rcx
	vsubsd	%xmm5, %xmm6, %xmm6
	vmovsd	-576040(%rsi,%rdi,8), %xmm13
	vmovsd	-576040(%rsi,%rcx,8), %xmm5
	vmovsd	720032(%rsi,%rcx,8), %xmm14
	vsubsd	%xmm13, %xmm5, %xmm5
	vfmadd231sd	%xmm6, %xmm5, %xmm13
	vmovsd	720032(%rsi,%rdi,8), %xmm5
	vsubsd	%xmm5, %xmm14, %xmm14
	vfmadd132sd	%xmm6, %xmm5, %xmm14
	vmulsd	120(%rsp), %xmm14, %xmm14
.L1076:
	vfnmadd213sd	0(%rbp), %xmm14, %xmm1
	vfnmadd213sd	80000(%rbp), %xmm14, %xmm4
	vfnmadd213sd	160000(%rbp), %xmm14, %xmm12
	vfnmadd213sd	8(%rbp), %xmm14, %xmm0
	vfnmadd213sd	80008(%rbp), %xmm14, %xmm3
	vfnmadd213sd	160008(%rbp), %xmm14, %xmm15
	vfnmadd213sd	16(%rbp), %xmm14, %xmm7
	vfnmadd213sd	80016(%rbp), %xmm14, %xmm2
	movq	24(%rsp), %rax
	vfnmadd213sd	160016(%rbp), %xmm11, %xmm14
	vaddsd	(%rax), %xmm13, %xmm13
	incq	%rbx
	vmovsd	%xmm1, 0(%rbp)
	vmovsd	%xmm4, 80000(%rbp)
	vmovsd	%xmm12, 160000(%rbp)
	vmovsd	%xmm0, 8(%rbp)
	vmovsd	%xmm3, 80008(%rbp)
	vmovsd	%xmm15, 160008(%rbp)
	vmovsd	%xmm7, 16(%rbp)
	vmovsd	%xmm2, 80016(%rbp)
	vmovsd	%xmm14, 160016(%rbp)
	vmovsd	%xmm13, (%rax)
	addq	$8, %rbp
	addq	$48, %r12
	cmpq	%r14, %rbx
	jne	.L1078
	.p2align 4,,10
	.p2align 3
.L1104:
	movl	16(%rsp), %r14d
	cmpl	$3, %r14d
	jle	.L1102
	vmovsd	8+ang_(%rip), %xmm2
	movl	102432+ang_(%rip), %eax
	vmovsd	.LC100(%rip), %xmm3
	vmovsd	%xmm2, 64(%rsp)
	vmovsd	16+ang_(%rip), %xmm2
	movl	%eax, 8(%rsp)
	movl	240000+angtemp_(%rip), %eax
	vmulsd	%xmm2, %xmm3, %xmm6
	movl	%eax, 40(%rsp)
	movl	80024+chiral_(%rip), %eax
	vmovsd	%xmm2, 72(%rsp)
	movl	%eax, 48(%rsp)
	vmovsd	80008+chiral_(%rip), %xmm2
	vmovsd	%xmm6, 80(%rsp)
	vmovsd	%xmm2, 56(%rsp)
	leaq	80000+bon_(%rip), %r12
	leaq	for_(%rip), %rbp
	leaq	240000+pos_(%rip), %r15
	leal	-3(%r14), %r13d
	xorl	%ebx, %ebx
	.p2align 4,,10
	.p2align 3
.L1088:
	movl	(%r12), %r14d
	testl	%r14d, %r14d
	je	.L1080
	movl	4(%r12), %r11d
	testl	%r11d, %r11d
	je	.L1080
	movl	8(%r12), %r10d
	testl	%r10d, %r10d
	jne	.L1106
	.p2align 4,,10
	.p2align 3
.L1080:
	incq	%rbx
	addq	$4, %r12
	addq	$8, %rbp
	addq	$48, %r15
	cmpq	%rbx, %r13
	jne	.L1088
.L1102:
	addq	$280, %rsp
	.cfi_remember_state
	.cfi_def_cfa_offset 56
	popq	%rbx
	.cfi_def_cfa_offset 48
	popq	%rbp
	.cfi_def_cfa_offset 40
	popq	%r12
	.cfi_def_cfa_offset 32
	popq	%r13
	.cfi_def_cfa_offset 24
	popq	%r14
	.cfi_def_cfa_offset 16
	popq	%r15
	.cfi_def_cfa_offset 8
	ret
	.p2align 4,,10
	.p2align 3
.L1089:
	.cfi_restore_state
	vmovsd	%xmm1, %xmm1, %xmm11
	vmovsd	%xmm1, %xmm1, %xmm2
	vmovsd	%xmm1, %xmm1, %xmm7
	vmovsd	%xmm1, %xmm1, %xmm15
	vmovsd	%xmm1, %xmm1, %xmm3
	vmovsd	%xmm1, %xmm1, %xmm0
	vmovsd	%xmm1, %xmm1, %xmm12
	vmovsd	%xmm1, %xmm1, %xmm4
	jmp	.L1073
	.p2align 4,,10
	.p2align 3
.L1106:
	vmovsd	480056(%r15), %xmm3
	vmovsd	480104(%r15), %xmm7
	leaq	1200008+pos_(%rip), %rax
	vmulsd	%xmm3, %xmm7, %xmm1
	vmovsd	(%rax,%rbx,8), %xmm6
	vmovsd	48(%r15), %xmm0
	vmovsd	480048(%r15), %xmm5
	vmovsd	%xmm6, 152(%rsp)
	vmovsd	480096(%r15), %xmm6
	vmovsd	%xmm0, 32(%rsp)
	vmovsd	56(%r15), %xmm0
	vfmadd231sd	%xmm5, %xmm6, %xmm1
	vmovsd	%xmm0, 184(%rsp)
	vmovsd	64(%r15), %xmm0
	vmovsd	480112(%r15), %xmm4
	vmovsd	480064(%r15), %xmm2
	vmovsd	%xmm0, 192(%rsp)
	vmovsd	8(%r15), %xmm0
	vfmadd231sd	%xmm2, %xmm4, %xmm1
	vmovsd	%xmm2, 112(%rsp)
	vmulsd	%xmm7, %xmm0, %xmm2
	vmovsd	%xmm5, 88(%rsp)
	vmovsd	(%r15), %xmm5
	vmovsd	%xmm7, 136(%rsp)
	vminsd	.LC8(%rip), %xmm1, %xmm1
	vfmadd231sd	%xmm6, %xmm5, %xmm2
	vmovsd	16(%r15), %xmm7
	vmaxsd	.LC9(%rip), %xmm1, %xmm1
	addq	$8, %rax
	vmovsd	%xmm0, 168(%rsp)
	vfmadd231sd	%xmm4, %xmm7, %xmm2
	vmovsd	%xmm1, %xmm1, %xmm0
	movq	(%rax,%rbx,8), %r14
	vmovsd	%xmm3, 96(%rsp)
	vmovsd	%xmm4, 144(%rsp)
	vmovsd	%xmm5, 160(%rsp)
	vmovsd	%xmm7, 176(%rsp)
	vmovsd	%xmm2, 16(%rsp)
	vmovsd	%xmm6, 120(%rsp)
	vmovsd	%xmm1, 200(%rsp)
	call	acos@PLT
	vmovsd	16(%rsp), %xmm2
	vxorpd	%xmm7, %xmm7, %xmm7
	vcmpltsd	%xmm2, %xmm7, %xmm2
	vmovsd	%xmm0, %xmm0, %xmm3
	movl	4(%rsp), %r9d
	vxorpd	.LC11(%rip), %xmm0, %xmm0
	leaq	80016+angtemp_(%rip), %rax
	vblendvpd	%xmm2, %xmm0, %xmm3, %xmm0
	testl	%r9d, %r9d
	vmovsd	96(%r15), %xmm5
	vmovsd	104(%r15), %xmm3
	vmovsd	112(%r15), %xmm2
	vmovq	.LC11(%rip), %xmm4
	vmovsd	%xmm0, (%rax,%rbx,8)
	je	.L1080
	movl	8(%rsp), %r8d
	testl	%r8d, %r8d
	je	.L1080
	leaq	160000+angnat_(%rip), %rax
	movl	(%rax,%rbx,4), %edi
	vmovsd	200(%rsp), %xmm1
	testl	%edi, %edi
	je	.L1084
	addq	$12, %rax
	movl	(%rax,%rbx,4), %esi
	testl	%esi, %esi
	jne	.L1107
.L1084:
	vmovsd	%xmm2, 216(%rsp)
	vmovsd	%xmm3, 208(%rsp)
	vmovsd	%xmm5, 200(%rsp)
	vmovsd	%xmm1, 16(%rsp)
	call	sin@PLT
	vmovsd	16(%rsp), %xmm1
	leaq	40008+sequence_(%rip), %rax
	vmulsd	%xmm0, %xmm0, %xmm11
	vmulsd	%xmm0, %xmm1, %xmm12
	vmovsd	%xmm0, %xmm0, %xmm10
	vmovd	(%rax,%rbx,4), %xmm0
	vmovdqa	%xmm0, %xmm8
	vmovdqa	.LC101(%rip), %xmm0
	vmulsd	%xmm1, %xmm1, %xmm9
	vmovdqa	%xmm0, %xmm7
	vpminsd	%xmm0, %xmm8, %xmm0
	vmovd	%xmm0, %eax
	cltq
	leaq	(%rax,%rax,4), %rdx
	leaq	40004+sequence_(%rip), %rax
	vmovd	(%rax,%rbx,4), %xmm0
	vpminsd	%xmm7, %xmm0, %xmm0
	vmovd	%xmm0, %eax
	cltq
	leaq	-21(%rax,%rdx,4), %rax
	salq	$4, %rax
	leaq	ang_(%rip), %rdx
	vmovsd	51264(%rdx,%rax,8), %xmm14
	vmovsd	51240(%rdx,%rax,8), %xmm13
	vmulsd	%xmm9, %xmm14, %xmm0
	vmovsd	51248(%rdx,%rax,8), %xmm7
	vmovsd	%xmm13, %xmm13, %xmm8
	vfmadd213sd	51232(%rdx,%rax,8), %xmm10, %xmm8
	vmovsd	51256(%rdx,%rax,8), %xmm6
	vfmadd231sd	%xmm1, %xmm7, %xmm0
	vsubsd	%xmm11, %xmm9, %xmm9
	vmovq	.LC11(%rip), %xmm4
	vmovsd	216(%rsp), %xmm2
	vmovsd	208(%rsp), %xmm3
	vaddsd	%xmm8, %xmm0, %xmm0
	vmovsd	51272(%rdx,%rax,8), %xmm8
	vmovsd	200(%rsp), %xmm5
	vmulsd	%xmm12, %xmm8, %xmm15
	vmulsd	%xmm8, %xmm9, %xmm9
	vfmadd231sd	%xmm11, %xmm6, %xmm15
	vsubsd	%xmm14, %xmm6, %xmm6
	vfmadd231sd	%xmm1, %xmm13, %xmm9
	vmovapd	%xmm4, %xmm14
	vaddsd	%xmm6, %xmm6, %xmm6
	vaddsd	%xmm15, %xmm0, %xmm0
	vmulsd	%xmm12, %xmm6, %xmm6
	vfnmadd132sd	%xmm10, %xmm6, %xmm7
	vaddsd	%xmm9, %xmm7, %xmm7
.L1086:
	movq	104(%rsp), %rax
	movl	(%rax), %eax
	testl	%eax, %eax
	je	.L1087
	movq	128(%rsp), %rax
	vmovsd	(%rax), %xmm1
	vmulsd	%xmm1, %xmm7, %xmm7
	vmulsd	%xmm1, %xmm0, %xmm0
.L1087:
	vmovsd	.LC8(%rip), %xmm1
	vmovq	%r14, %xmm9
	vdivsd	%xmm9, %xmm1, %xmm11
	vmovsd	184(%rsp), %xmm4
	vmovsd	192(%rsp), %xmm12
	vmulsd	%xmm4, %xmm4, %xmm10
	vmovsd	32(%rsp), %xmm6
	vdivsd	152(%rsp), %xmm1, %xmm15
	vmulsd	88(%rsp), %xmm15, %xmm13
	vmulsd	96(%rsp), %xmm15, %xmm9
	vfmadd231sd	%xmm12, %xmm12, %xmm10
	vmulsd	112(%rsp), %xmm15, %xmm15
	vfmadd231sd	%xmm6, %xmm6, %xmm10
	vsqrtsd	%xmm10, %xmm10, %xmm8
	vmovq	%xmm10, %rax
	vmovsd	32(%rsp), %xmm10
	vmulsd	%xmm8, %xmm13, %xmm13
	vmulsd	%xmm8, %xmm9, %xmm9
	vmulsd	%xmm8, %xmm15, %xmm15
	vmulsd	%xmm10, %xmm5, %xmm5
	vmulsd	120(%rsp), %xmm11, %xmm1
	vmulsd	136(%rsp), %xmm11, %xmm6
	vmulsd	144(%rsp), %xmm11, %xmm11
	vfmadd132sd	%xmm4, %xmm5, %xmm3
	vmulsd	%xmm8, %xmm1, %xmm1
	vmulsd	%xmm8, %xmm6, %xmm6
	vmulsd	%xmm8, %xmm11, %xmm8
	vmovsd	168(%rsp), %xmm11
	vmulsd	%xmm4, %xmm11, %xmm11
	vmovq	%rax, %xmm4
	movq	24(%rsp), %rax
	vaddsd	(%rax), %xmm0, %xmm0
	vfmadd231sd	176(%rsp), %xmm12, %xmm11
	vfmadd132sd	%xmm2, %xmm3, %xmm12
	vmovsd	.LC8(%rip), %xmm2
	vmovsd	%xmm0, (%rax)
	vmovsd	%xmm7, %xmm7, %xmm0
	vfmadd231sd	160(%rsp), %xmm10, %xmm11
	vdivsd	%xmm4, %xmm2, %xmm10
	vfnmadd213sd	0(%rbp), %xmm13, %xmm0
	vxorpd	%xmm14, %xmm11, %xmm11
	vmulsd	%xmm13, %xmm11, %xmm3
	vmulsd	%xmm9, %xmm11, %xmm2
	vmulsd	%xmm15, %xmm11, %xmm11
	vmovsd	%xmm0, 0(%rbp)
	vmovsd	%xmm7, %xmm7, %xmm0
	vfnmadd213sd	80000(%rbp), %xmm9, %xmm0
	vfnmadd231sd	%xmm12, %xmm1, %xmm3
	vfnmadd231sd	%xmm12, %xmm6, %xmm2
	vfnmadd132sd	%xmm8, %xmm11, %xmm12
	vmovsd	%xmm0, 80000(%rbp)
	vmovsd	%xmm7, %xmm7, %xmm0
	vfnmadd213sd	160000(%rbp), %xmm15, %xmm0
	vmovsd	%xmm0, 160000(%rbp)
	vfmsub231sd	%xmm10, %xmm3, %xmm13
	vfmsub231sd	%xmm10, %xmm2, %xmm9
	vfmsub231sd	%xmm10, %xmm12, %xmm15
	vfnmadd132sd	%xmm10, %xmm1, %xmm3
	vfnmadd132sd	%xmm10, %xmm6, %xmm2
	vfnmadd213sd	8(%rbp), %xmm7, %xmm13
	vfnmadd213sd	80008(%rbp), %xmm7, %xmm9
	vfnmadd213sd	160008(%rbp), %xmm7, %xmm15
	vfnmadd132sd	%xmm10, %xmm8, %xmm12
	vfnmadd213sd	16(%rbp), %xmm7, %xmm3
	vmovsd	%xmm13, 8(%rbp)
	vmovsd	%xmm9, 80008(%rbp)
	vmovsd	%xmm15, 160008(%rbp)
	vmovsd	%xmm3, 16(%rbp)
	vfnmadd213sd	80016(%rbp), %xmm7, %xmm2
	vfnmadd213sd	160016(%rbp), %xmm7, %xmm12
	vfmadd213sd	24(%rbp), %xmm7, %xmm1
	vfmadd213sd	80024(%rbp), %xmm7, %xmm6
	vfmadd213sd	160024(%rbp), %xmm7, %xmm8
	vmovsd	%xmm2, 80016(%rbp)
	vmovsd	%xmm12, 160016(%rbp)
	vmovsd	%xmm1, 24(%rbp)
	vmovsd	%xmm6, 80024(%rbp)
	vmovsd	%xmm8, 160024(%rbp)
	jmp	.L1080
	.p2align 4,,10
	.p2align 3
.L1105:
	leaq	8(%rax), %rdx
	movl	(%rdx,%rbx,4), %edx
	testl	%edx, %edx
	je	.L1074
	leaq	-159992(%rax), %rdx
	vsubsd	(%rdx,%rbx,8), %xmm6, %xmm13
	vmulsd	136(%rsp), %xmm13, %xmm14
	vmulsd	%xmm13, %xmm14, %xmm13
	vaddsd	%xmm14, %xmm14, %xmm14
	jmp	.L1076
	.p2align 4,,10
	.p2align 3
.L1075:
	vmulsd	%xmm6, %xmm6, %xmm8
	leaq	(%rsi,%rsi,4), %rcx
	leaq	-21(%rdx,%rcx,4), %rdx
	salq	$4, %rdx
	leaq	ang_(%rip), %rcx
	vmulsd	%xmm6, %xmm8, %xmm14
	vmovsd	40(%rcx,%rdx,8), %xmm13
	vfmadd213sd	32(%rcx,%rdx,8), %xmm6, %xmm13
	vmulsd	%xmm6, %xmm14, %xmm10
	vmulsd	%xmm6, %xmm10, %xmm5
	vmovq	%xmm5, %rax
	vmulsd	64(%rcx,%rdx,8), %xmm10, %xmm5
	vfmadd231sd	48(%rcx,%rdx,8), %xmm8, %xmm5
	vaddsd	%xmm5, %xmm13, %xmm5
	vmovsd	80(%rcx,%rdx,8), %xmm13
	vfmadd213sd	56(%rcx,%rdx,8), %xmm14, %xmm13
	vmovq	%xmm5, %rsi
	vmovq	%rax, %xmm5
	vmulsd	%xmm14, %xmm13, %xmm13
	vmulsd	120(%rcx,%rdx,8), %xmm14, %xmm14
	vfmadd231sd	72(%rcx,%rdx,8), %xmm5, %xmm13
	vmovq	%rsi, %xmm5
	vfmadd231sd	112(%rcx,%rdx,8), %xmm8, %xmm14
	vaddsd	%xmm5, %xmm13, %xmm13
	vmovsd	96(%rcx,%rdx,8), %xmm5
	vfmadd132sd	104(%rcx,%rdx,8), %xmm5, %xmm6
	vaddsd	%xmm6, %xmm14, %xmm14
	vmovq	%rax, %xmm6
	vmulsd	136(%rcx,%rdx,8), %xmm6, %xmm5
	vfmadd132sd	128(%rcx,%rdx,8), %xmm5, %xmm10
	vaddsd	%xmm10, %xmm14, %xmm14
	jmp	.L1076
.L1107:
	movl	40(%rsp), %ecx
	testl	%ecx, %ecx
	jne	.L1084
	movl	48(%rsp), %edx
	subq	$79996, %rax
	vsubsd	(%rax,%rbx,8), %xmm0, %xmm0
	testl	%edx, %edx
	je	.L1085
	vmulsd	56(%rsp), %xmm0, %xmm7
	vmulsd	.LC72(%rip), %xmm0, %xmm0
	vmovapd	%xmm4, %xmm14
	vmulsd	%xmm7, %xmm0, %xmm0
	vxorpd	%xmm4, %xmm7, %xmm7
	jmp	.L1086
.L1085:
	leaq	264(%rsp), %rdi
	leaq	256(%rsp), %rsi
	vmovsd	%xmm2, 248(%rsp)
	vmovsd	%xmm3, 240(%rsp)
	vmovsd	%xmm5, 232(%rsp)
	movq	%rsi, 224(%rsp)
	movq	%rdi, 216(%rsp)
	vmovsd	%xmm0, 208(%rsp)
	call	sincos@PLT
	vmovsd	208(%rsp), %xmm0
	vmovsd	256(%rsp), %xmm6
	vmulsd	.LC100(%rip), %xmm0, %xmm0
	vmovsd	264(%rsp), %xmm4
	movq	224(%rsp), %rsi
	movq	216(%rsp), %rdi
	vmovsd	%xmm6, 16(%rsp)
	vmovsd	%xmm4, 200(%rsp)
	call	sincos@PLT
	vmovsd	.LC8(%rip), %xmm7
	vmovsd	64(%rsp), %xmm6
	vsubsd	256(%rsp), %xmm7, %xmm0
	vsubsd	16(%rsp), %xmm7, %xmm1
	vmovsd	80(%rsp), %xmm7
	vmulsd	72(%rsp), %xmm0, %xmm0
	vmulsd	264(%rsp), %xmm7, %xmm7
	vmovq	.LC11(%rip), %xmm4
	vmovsd	232(%rsp), %xmm5
	vmovsd	240(%rsp), %xmm3
	vfmadd231sd	%xmm6, %xmm1, %xmm0
	vfmadd231sd	200(%rsp), %xmm6, %xmm7
	vmovsd	248(%rsp), %xmm2
	vmovapd	%xmm4, %xmm14
	jmp	.L1086
	.cfi_endproc
.LFE23:
	.size	evalangles_, .-evalangles_
	.p2align 4
	.globl	eval_chirality_
	.type	eval_chirality_, @function
eval_chirality_:
.LFB24:
	.cfi_startproc
	movl	8+bas_(%rip), %r9d
	movq	%rdi, %r10
	cmpl	$1, %r9d
	jle	.L1109
	leaq	240000+pos_(%rip), %rdx
	leal	-1(%r9), %r8d
	xorl	%eax, %eax
	leaq	xs.30(%rip), %rdi
	leaq	ys.29(%rip), %rcx
	leaq	zs.28(%rip), %rsi
	.p2align 4,,10
	.p2align 3
.L1113:
	vmovsd	(%rdx), %xmm0
	addq	$48, %rdx
	vmovsd	%xmm0, (%rdi,%rax,8)
	vmovsd	-40(%rdx), %xmm0
	vmovsd	%xmm0, (%rcx,%rax,8)
	vmovsd	-32(%rdx), %xmm0
	vmovsd	%xmm0, (%rsi,%rax,8)
	incq	%rax
	cmpq	%r8, %rax
	jne	.L1113
	cmpl	$3, %r9d
	jle	.L1109
	pushq	%r14
	.cfi_def_cfa_offset 16
	.cfi_offset 14, -16
	leal	-4(%r9), %r8d
	leaq	79992+bon_(%rip), %r9
	pushq	%r13
	.cfi_def_cfa_offset 24
	.cfi_offset 13, -24
	vmovq	.LC11(%rip), %xmm1
	leaq	720048+pos_(%rip), %rdx
	pushq	%r12
	.cfi_def_cfa_offset 32
	.cfi_offset 12, -32
	leaq	3(%r8), %r11
	movl	$2, %eax
	pushq	%rbp
	.cfi_def_cfa_offset 40
	.cfi_offset 6, -40
	leaq	159984+angtemp_(%rip), %r12
	pushq	%rbx
	.cfi_def_cfa_offset 48
	.cfi_offset 3, -48
	leaq	4(%r9), %rbx
	leaq	-79988(%rbx), %rbp
	.p2align 4,,10
	.p2align 3
.L1116:
	movl	(%r9,%rax,4), %r13d
	testl	%r13d, %r13d
	je	.L1114
	movl	(%rbx,%rax,4), %r14d
	testl	%r14d, %r14d
	je	.L1114
	vmovsd	16(%rdx), %xmm0
	vmovsd	8(%rdx), %xmm7
	vmulsd	(%rsi,%rax,8), %xmm0, %xmm0
	vfmadd231sd	(%rcx,%rax,8), %xmm7, %xmm0
	vmovsd	(%rdx), %xmm7
	vfmadd231sd	(%rdi,%rax,8), %xmm7, %xmm0
	vxorpd	%xmm1, %xmm0, %xmm0
	vdivsd	0(%rbp,%rax,8), %xmm0, %xmm0
	vmovsd	%xmm0, (%r12,%rax,8)
.L1114:
	incq	%rax
	addq	$48, %rdx
	cmpq	%r11, %rax
	jne	.L1116
	vmovsd	bon_(%rip), %xmm0
	leaq	80000+bon_(%rip), %r11
	vmulsd	%xmm0, %xmm0, %xmm12
	movq	$0x000000000, (%r10)
	vmovsd	80000+chiral_(%rip), %xmm13
	leaq	ys.29(%rip), %rdi
	leaq	zs.28(%rip), %rsi
	vmulsd	%xmm0, %xmm12, %xmm12
	vmovsd	.LC8(%rip), %xmm0
	leaq	xs.30(%rip), %rcx
	leaq	for_(%rip), %rdx
	xorl	%eax, %eax
	vdivsd	%xmm12, %xmm0, %xmm12
	leaq	4(%r11), %rbx
	leaq	160000+angtemp_(%rip), %r12
	leaq	chiral_(%rip), %rbp
	jmp	.L1118
	.p2align 4,,10
	.p2align 3
.L1120:
	movq	%r9, %rax
.L1118:
	movl	(%r11,%rax,4), %r13d
	testl	%r13d, %r13d
	je	.L1117
	movl	(%rbx,%rax,4), %r9d
	testl	%r9d, %r9d
	je	.L1117
	vmovsd	(%r12,%rax,8), %xmm1
	vxorpd	%xmm6, %xmm6, %xmm6
	vmulsd	0(%rbp,%rax,8), %xmm1, %xmm0
	vcomisd	%xmm6, %xmm0
	ja	.L1117
	vmulsd	%xmm1, %xmm13, %xmm0
	vmulsd	.LC72(%rip), %xmm1, %xmm1
	vmovsd	8(%rdi), %xmm7
	vmovsd	16(%rsi), %xmm2
	vmovsd	8(%rsi), %xmm11
	vmulsd	%xmm2, %xmm7, %xmm6
	vfmadd213sd	(%r10), %xmm0, %xmm1
	vmovsd	16(%rdi), %xmm3
	vmulsd	%xmm0, %xmm12, %xmm0
	vmovsd	8(%rcx), %xmm8
	vfnmadd231sd	%xmm3, %xmm11, %xmm6
	vmovsd	%xmm1, (%r10)
	vmovsd	16(%rcx), %xmm1
	vmulsd	%xmm3, %xmm8, %xmm4
	vmulsd	%xmm11, %xmm1, %xmm5
	vfmadd213sd	(%rdx), %xmm0, %xmm6
	vfnmadd231sd	%xmm7, %xmm1, %xmm4
	vfnmadd231sd	%xmm2, %xmm8, %xmm5
	vmovsd	%xmm6, (%rdx)
	vmovsd	(%rcx), %xmm6
	vaddsd	%xmm8, %xmm6, %xmm9
	vfmadd213sd	80000(%rdx), %xmm0, %xmm5
	vfmadd213sd	160000(%rdx), %xmm0, %xmm4
	vmulsd	%xmm2, %xmm9, %xmm15
	vmovsd	%xmm5, 80000(%rdx)
	vmovsd	(%rdi), %xmm5
	vmovsd	%xmm4, 160000(%rdx)
	vaddsd	%xmm7, %xmm5, %xmm14
	vmovsd	(%rsi), %xmm4
	vmovq	%xmm15, %r9
	vmulsd	%xmm1, %xmm14, %xmm15
	vaddsd	%xmm11, %xmm4, %xmm10
	vmovq	%xmm15, %r14
	vmulsd	%xmm3, %xmm10, %xmm15
	vfnmadd132sd	%xmm2, %xmm15, %xmm14
	vmovq	%r9, %xmm15
	vfnmadd132sd	%xmm1, %xmm15, %xmm10
	vmovq	%r14, %xmm15
	vfnmadd132sd	%xmm3, %xmm15, %xmm9
	vfmadd213sd	8(%rdx), %xmm0, %xmm14
	vaddsd	%xmm11, %xmm2, %xmm2
	vfmadd213sd	80008(%rdx), %xmm0, %xmm10
	vaddsd	%xmm8, %xmm1, %xmm1
	vfmadd213sd	160008(%rdx), %xmm0, %xmm9
	vmovsd	%xmm14, 8(%rdx)
	vmulsd	%xmm5, %xmm2, %xmm14
	vaddsd	%xmm3, %xmm7, %xmm3
	vmovsd	%xmm10, 80008(%rdx)
	vmovsd	%xmm9, 160008(%rdx)
	vmulsd	%xmm4, %xmm1, %xmm10
	vmulsd	%xmm6, %xmm3, %xmm9
	vfnmadd132sd	%xmm4, %xmm14, %xmm3
	vfnmadd132sd	%xmm6, %xmm10, %xmm2
	vfnmadd132sd	%xmm5, %xmm9, %xmm1
	vfmadd213sd	16(%rdx), %xmm0, %xmm3
	vfmadd213sd	80016(%rdx), %xmm0, %xmm2
	vfmadd213sd	160016(%rdx), %xmm0, %xmm1
	vmovsd	%xmm3, 16(%rdx)
	vmulsd	%xmm7, %xmm4, %xmm3
	vmovsd	%xmm2, 80016(%rdx)
	vmovsd	%xmm1, 160016(%rdx)
	vmulsd	%xmm11, %xmm6, %xmm2
	vmulsd	%xmm8, %xmm5, %xmm1
	vfnmadd132sd	%xmm11, %xmm3, %xmm5
	vfnmadd132sd	%xmm8, %xmm2, %xmm4
	vfnmadd132sd	%xmm7, %xmm1, %xmm6
	vfmadd213sd	24(%rdx), %xmm0, %xmm5
	vmovsd	%xmm5, 24(%rdx)
	vfmadd213sd	80024(%rdx), %xmm0, %xmm4
	vfmadd213sd	160024(%rdx), %xmm6, %xmm0
	vmovsd	%xmm4, 80024(%rdx)
	vmovsd	%xmm0, 160024(%rdx)
	.p2align 4,,10
	.p2align 3
.L1117:
	leaq	1(%rax), %r9
	addq	$8, %rdi
	addq	$8, %rsi
	addq	$8, %rcx
	addq	$8, %rdx
	cmpq	%rax, %r8
	jne	.L1120
	popq	%rbx
	.cfi_def_cfa_offset 40
	popq	%rbp
	.cfi_def_cfa_offset 32
	popq	%r12
	.cfi_def_cfa_offset 24
	popq	%r13
	.cfi_def_cfa_offset 16
	popq	%r14
	.cfi_def_cfa_offset 8
	ret
	.p2align 4,,10
	.p2align 3
.L1109:
	.cfi_restore 3
	.cfi_restore 6
	.cfi_restore 12
	.cfi_restore 13
	.cfi_restore 14
	movq	$0x000000000, (%r10)
	ret
	.cfi_endproc
.LFE24:
	.size	eval_chirality_, .-eval_chirality_
	.p2align 4
	.globl	evalcpot_
	.type	evalcpot_, @function
evalcpot_:
.LFB25:
	.cfi_startproc
	pushq	%r15
	.cfi_def_cfa_offset 16
	.cfi_offset 15, -16
	leaq	cmp2_(%rip), %rdx
	pushq	%r14
	.cfi_def_cfa_offset 24
	.cfi_offset 14, -24
	pushq	%r13
	.cfi_def_cfa_offset 32
	.cfi_offset 13, -32
	pushq	%r12
	.cfi_def_cfa_offset 40
	.cfi_offset 12, -40
	pushq	%rbp
	.cfi_def_cfa_offset 48
	.cfi_offset 6, -48
	pushq	%rbx
	.cfi_def_cfa_offset 56
	.cfi_offset 3, -56
	subq	$536, %rsp
	.cfi_def_cfa_offset 592
	movl	60000004(%rdx), %eax
	movq	%rdi, 144(%rsp)
	testl	%eax, %eax
	jle	.L1397
	vmovsd	240024+for_(%rip), %xmm4
	movl	36+kier_(%rip), %ecx
	vmovsd	%xmm4, 96(%rsp)
	vmovsd	240000+for_(%rip), %xmm4
	movl	%ecx, 48(%rsp)
	vmovsd	%xmm4, 104(%rsp)
	movl	40+kier_(%rip), %ecx
	vmovsd	240032+for_(%rip), %xmm4
	vmovsd	240008+for_(%rip), %xmm1
	movl	80024+misc_(%rip), %esi
	movl	%ecx, 52(%rsp)
	vmovsd	%xmm4, 112(%rsp)
	movl	44+kier_(%rip), %ecx
	vmovsd	240040+for_(%rip), %xmm4
	vmovsd	80000+misc_(%rip), %xmm2
	movl	%ecx, 80(%rsp)
	movl	%esi, 196(%rsp)
	movl	80032+misc_(%rip), %ecx
	movl	2000012+cmapi_(%rip), %esi
	movl	2000020+cmapi_(%rip), %ebx
	vmovsd	%xmm1, 120(%rsp)
	vmovsd	%xmm4, 128(%rsp)
	vmovsd	240016+for_(%rip), %xmm1
	vmovsd	cmapi_(%rip), %xmm4
	movl	%ecx, 24(%rsp)
	movl	%esi, 252(%rsp)
	vmovsd	%xmm1, 136(%rsp)
	vmovsd	%xmm4, 160(%rsp)
	vmovsd	%xmm2, 152(%rsp)
	movl	%ebx, 224(%rsp)
	vmovsd	80008+neigh_(%rip), %xmm13
	vmovsd	7924024+sig_(%rip), %xmm11
	movl	80036+ssb_(%rip), %ebx
	movl	32+restr_(%rip), %esi
	vmovsd	40+sig_(%rip), %xmm1
	movl	%esi, 228(%rsp)
	movl	80036+misc_(%rip), %esi
	vmovsd	24+restr_(%rip), %xmm4
	movl	%esi, 436(%rsp)
	movl	%ecx, %esi
	movl	80024+neigh_(%rip), %ecx
	vmovsd	%xmm1, 200(%rsp)
	movl	%ecx, 420(%rsp)
	vmovsd	8+restr_(%rip), %xmm1
	movl	2000024+cmapi_(%rip), %ecx
	movl	%ebx, 192(%rsp)
	movl	%ecx, 272(%rsp)
	movl	80020+neigh_(%rip), %ebx
	movl	2000016+cmapi_(%rip), %ecx
	vmovsd	%xmm4, 168(%rsp)
	vmovsd	%xmm1, 184(%rsp)
	vmovsd	restr_(%rip), %xmm4
	vmovsd	16+restr_(%rip), %xmm1
	movl	%ebx, 248(%rsp)
	movl	%ecx, 268(%rsp)
	movl	248008+nat_(%rip), %ebx
	movl	12+ssb2_(%rip), %ecx
	vmovsd	%xmm4, 352(%rsp)
	vmovsd	%xmm1, 280(%rsp)
	vmovsd	4000+sig_(%rip), %xmm4
	vmovsd	7924008+sig_(%rip), %xmm1
	andl	$1, %esi
	movb	%sil, 403(%rsp)
	movl	%ecx, 276(%rsp)
	vmovsd	%xmm1, 88(%rsp)
	movl	%ebx, 432(%rsp)
	vmovsd	%xmm4, 232(%rsp)
	vmovsd	72+pid_(%rip), %xmm5
	vmovsd	.LC8(%rip), %xmm15
	movl	28+bas_(%rip), %ecx
	vdivsd	%xmm2, %xmm15, %xmm4
	vmovsd	.LC85(%rip), %xmm0
	movl	%ecx, 256(%rsp)
	movl	%ecx, %esi
	movl	8+ssb2_(%rip), %ecx
	vmovsd	32+hhar_(%rip), %xmm7
	movl	%ecx, 264(%rsp)
	movl	28+ssb2_(%rip), %ecx
	decl	%eax
	movl	%ecx, 260(%rsp)
	movl	36+restr_(%rip), %ecx
	andl	$1, %esi
	movl	%ecx, 316(%rsp)
	movslq	540000008(%rdx), %rcx
	movb	%sil, 315(%rsp)
	imulq	$15000000, %rcx, %rcx
	vmovsd	%xmm5, 304(%rsp)
	vmovsd	%xmm7, 368(%rsp)
	addq	%rcx, %rax
	movq	%rcx, %rsi
	vdivsd	%xmm5, %xmm1, %xmm2
	salq	$4, %rax
	leaq	-179999976(%rdx,%rax), %rax
	salq	$4, %rsi
	movq	%rax, 56(%rsp)
	leaq	-179999992(%rdx,%rsi), %r14
	leaq	240016+nat_(%rip), %rax
	leal	-1(%rbx), %edx
	vmovsd	%xmm4, 472(%rsp)
	leaq	(%rax,%rdx,8), %rax
	vxorps	%xmm12, %xmm12, %xmm12
	leaq	sdch_(%rip), %r15
	leaq	pos_(%rip), %r10
	vmovsd	%xmm2, 376(%rsp)
	vdivsd	bas_(%rip), %xmm0, %xmm2
	vmovsd	%xmm2, 440(%rsp)
	vmovsd	24+hhar_(%rip), %xmm2
	vmovsd	%xmm2, 448(%rsp)
	vmovsd	16+hhar_(%rip), %xmm2
	vaddsd	%xmm2, %xmm2, %xmm1
	vmovsd	%xmm2, 456(%rsp)
	vdivsd	48+hhar_(%rip), %xmm15, %xmm2
	vmovsd	%xmm1, 464(%rsp)
	vmulsd	56+hhar_(%rip), %xmm4, %xmm1
	vmulsd	%xmm7, %xmm4, %xmm4
	vmovsd	%xmm2, 336(%rsp)
	vmovsd	32+sig_(%rip), %xmm2
	vmovsd	%xmm1, 344(%rsp)
	vmovsd	%xmm2, 480(%rsp)
	vmovsd	48+sig_(%rip), %xmm5
	vmovq	.LC11(%rip), %xmm0
	vmovsd	24+sig_(%rip), %xmm1
	movq	%rax, 424(%rsp)
	vmovsd	%xmm5, 360(%rsp)
	vmovsd	%xmm1, 392(%rsp)
	vmovsd	%xmm0, %xmm0, %xmm14
	vmovapd	%xmm0, 320(%rsp)
	vmovsd	%xmm4, 296(%rsp)
	jmp	.L1225
	.p2align 4,,10
	.p2align 3
.L1403:
	cmpl	$2, %edi
	setg	314(%rsp)
	movl	%edi, %r11d
.L1129:
	movslq	(%r14), %r12
	decl	%edi
	movslq	%edi, %rdi
	leaq	sig_(%rip), %rbx
	vmovsd	(%rbx,%rdi,8), %xmm0
	movl	4(%r14), %edi
	movl	356(%r15,%r12,4), %ebx
	leaq	-1(%r12), %rbp
	movl	%ebx, 16(%rsp)
	movslq	%edi, %rbx
	movl	%edi, 28(%rsp)
	movl	356(%r15,%rbx,4), %r8d
	vmovsd	(%r10,%rbp,8), %xmm1
	vmovsd	79992(%r10,%r12,8), %xmm2
	vmovsd	159992(%r10,%r12,8), %xmm4
	movl	48(%rsp), %edi
	movl	%r12d, 40(%rsp)
	movl	%r8d, 12(%rsp)
	vsubsd	-8(%r10,%rbx,8), %xmm1, %xmm1
	vsubsd	79992(%r10,%rbx,8), %xmm2, %xmm2
	vsubsd	159992(%r10,%rbx,8), %xmm4, %xmm4
	leaq	-1(%rbx), %r13
	testl	%edi, %edi
	je	.L1130
	vmulsd	96(%rsp), %xmm1, %xmm5
	vmovsd	.LC60(%rip), %xmm3
	vandpd	%xmm5, %xmm14, %xmm6
	vorpd	%xmm6, %xmm3, %xmm3
	vaddsd	%xmm5, %xmm3, %xmm3
	vcvttsd2sil	%xmm3, %r8d
	vcvtsi2sdl	%r8d, %xmm12, %xmm3
	vfnmadd231sd	104(%rsp), %xmm3, %xmm1
.L1130:
	movl	52(%rsp), %r9d
	testl	%r9d, %r9d
	je	.L1131
	vmulsd	112(%rsp), %xmm2, %xmm5
	vmovsd	.LC60(%rip), %xmm3
	vandpd	%xmm5, %xmm14, %xmm6
	vorpd	%xmm6, %xmm3, %xmm3
	vaddsd	%xmm5, %xmm3, %xmm3
	vcvttsd2sil	%xmm3, %r8d
	vcvtsi2sdl	%r8d, %xmm12, %xmm3
	vfnmadd231sd	120(%rsp), %xmm3, %xmm2
.L1131:
	movl	80(%rsp), %r8d
	testl	%r8d, %r8d
	je	.L1132
	vmulsd	128(%rsp), %xmm4, %xmm5
	vmovsd	.LC60(%rip), %xmm3
	vandpd	%xmm5, %xmm14, %xmm6
	vorpd	%xmm6, %xmm3, %xmm3
	vaddsd	%xmm5, %xmm3, %xmm3
	vcvttsd2sil	%xmm3, %r8d
	vcvtsi2sdl	%r8d, %xmm12, %xmm3
	vfnmadd231sd	136(%rsp), %xmm3, %xmm4
.L1132:
	vmulsd	%xmm2, %xmm2, %xmm3
	vfmadd231sd	%xmm1, %xmm1, %xmm3
	vfmadd231sd	%xmm4, %xmm4, %xmm3
	vcomisd	%xmm3, %xmm13
	jbe	.L1133
	leaq	neigh_(%rip), %r8
	incl	(%r8,%rbp,8)
	incl	(%r8,%r13,8)
.L1133:
	vcomisd	%xmm11, %xmm3
	jbe	.L1389
	testl	%eax, %eax
	je	.L1137
	decl	%ecx
	xorl	%ecx, %eax
	sarl	$31, %eax
	leal	(%rcx,%rax), %edx
	xorl	%eax, %edx
	movl	%edx, 8(%r14)
.L1137:
	testl	%edx, %edx
	jne	.L1220
	cmpb	$0, 314(%rsp)
	jne	.L1401
.L1220:
	addq	$16, %r14
	cmpq	56(%rsp), %r14
	je	.L1402
.L1225:
	movl	12(%r14), %esi
	movl	8(%r14), %eax
	movl	%esi, %r8d
	sarl	$31, %r8d
	movl	%eax, %r9d
	movl	%r8d, %edi
	sarl	$31, %r9d
	xorl	%esi, %edi
	movl	%r9d, %ecx
	subl	%r8d, %edi
	xorl	%eax, %ecx
	orl	$1, %r8d
	movl	%r8d, 20(%rsp)
	movl	%eax, %edx
	subl	%r9d, %ecx
	cmpl	$8, %edi
	jle	.L1403
	movb	$1, 314(%rsp)
	movl	$5, %r11d
	jmp	.L1129
	.p2align 4,,10
	.p2align 3
.L1389:
	movl	24(%rsp), %edi
	vsqrtsd	%xmm3, %xmm3, %xmm5
	movl	$0, 32(%rsp)
	testl	%edi, %edi
	je	.L1138
	movl	16(%rsp), %r8d
	xorl	%edi, %edi
	addl	12(%rsp), %r8d
	cmpl	$7, %r8d
	setg	%dil
	movl	%edi, 32(%rsp)
.L1138:
	cmpl	$1, %r11d
	jle	.L1404
	vmulsd	160(%rsp), %xmm0, %xmm6
	vcomisd	%xmm5, %xmm6
	jb	.L1391
	movl	$6, %esi
	addl	$2, 196(%rsp)
	cmpl	%esi, %r11d
	cmovle	%r11d, %esi
	cmpl	$1, 20(%rsp)
	movl	%esi, %r8d
	je	.L1405
	leal	-4(%rsi), %esi
	movslq	%esi, %rsi
	incl	224(%rsp)
	incl	(%r15,%rsi,4)
.L1176:
	vcvtsi2sdl	%ecx, %xmm12, %xmm6
	vmovsd	152(%rsp), %xmm7
	movl	%eax, %esi
	vcomisd	%xmm6, %xmm7
	jbe	.L1177
	leal	1(%rcx), %esi
	movl	%esi, 8(%r14)
.L1177:
	movl	192(%rsp), %eax
	testl	%eax, %eax
	je	.L1180
	leaq	sequence_(%rip), %rax
	leaq	10000(%rbp), %rdi
	cmpl	$4, 40000(%rax,%rbp,4)
	movq	%rdi, 64(%rsp)
	je	.L1406
	movl	24(%rsp), %eax
	testl	%eax, %eax
	jne	.L1186
	.p2align 4,,10
	.p2align 3
.L1185:
	vcomisd	88(%rsp), %xmm5
	jbe	.L1396
	movl	32(%rsp), %eax
	movl	%esi, %edx
	testl	%eax, %eax
	je	.L1137
	movl	24(%rsp), %ecx
	leaq	10000(%rbp), %rax
	movq	%rax, 64(%rsp)
	vxorpd	%xmm6, %xmm6, %xmm6
	leaq	10000(%r13), %rax
	testl	%ecx, %ecx
	movq	%rax, 72(%rsp)
	vmovsd	%xmm6, %xmm6, %xmm7
	jne	.L1207
	.p2align 4,,10
	.p2align 3
.L1209:
	vdivsd	%xmm5, %xmm6, %xmm6
	movq	144(%rsp), %rax
	movq	64(%rsp), %rsi
	vaddsd	(%rax), %xmm7, %xmm7
	movq	72(%rsp), %rcx
	vmovsd	%xmm7, (%rax)
	leaq	for_(%rip), %rax
	vmovsd	%xmm6, %xmm6, %xmm0
	vfnmadd213sd	(%rax,%rbp,8), %xmm1, %xmm0
	vmovsd	%xmm0, (%rax,%rbp,8)
	vmovsd	%xmm6, %xmm6, %xmm0
	vfnmadd213sd	(%rax,%rsi,8), %xmm2, %xmm0
	vfmadd213sd	(%rax,%r13,8), %xmm6, %xmm1
	vmovsd	%xmm0, (%rax,%rsi,8)
	vmovsd	%xmm6, %xmm6, %xmm0
	vfnmadd213sd	160000(%rax,%rbp,8), %xmm4, %xmm0
	vfmadd213sd	(%rax,%rcx,8), %xmm6, %xmm2
	vmovsd	%xmm1, (%rax,%r13,8)
	vmovsd	%xmm0, 160000(%rax,%rbp,8)
	vfmadd213sd	160000(%rax,%r13,8), %xmm4, %xmm6
	vmovsd	%xmm2, (%rax,%rcx,8)
	vmovsd	%xmm6, 160000(%rax,%r13,8)
	jmp	.L1137
	.p2align 4,,10
	.p2align 3
.L1180:
	movl	24(%rsp), %r9d
	testl	%r9d, %r9d
	je	.L1185
	leaq	sequence_(%rip), %rax
	leaq	10000(%rbp), %rdi
	cmpl	$4, 40000(%rax,%rbp,4)
	movq	%rdi, 64(%rsp)
	je	.L1407
.L1186:
	movl	256(%rsp), %eax
	testl	%eax, %eax
	je	.L1197
	vmulsd	304(%rsp), %xmm0, %xmm6
	vcomisd	%xmm5, %xmm6
	jnb	.L1408
	movl	32(%rsp), %eax
	testl	%eax, %eax
	jne	.L1197
	testl	%edx, %edx
	movl	%esi, %edx
	je	.L1137
	.p2align 4,,10
	.p2align 3
.L1197:
	vcvtsi2sdl	%ecx, %xmm12, %xmm7
	vmulsd	296(%rsp), %xmm7, %xmm7
.L1200:
	cmpl	$4, %r11d
	jne	.L1203
	vaddsd	%xmm7, %xmm7, %xmm7
.L1203:
	vdivsd	%xmm5, %xmm0, %xmm0
	vmovsd	.LC83(%rip), %xmm9
	vmovsd	.LC74(%rip), %xmm8
	vcomisd	88(%rsp), %xmm5
	vmulsd	%xmm0, %xmm0, %xmm6
	vmulsd	%xmm0, %xmm6, %xmm6
	vmulsd	%xmm6, %xmm6, %xmm6
	vmulsd	%xmm6, %xmm7, %xmm0
	vsubsd	%xmm15, %xmm6, %xmm7
	vfnmadd132sd	%xmm8, %xmm15, %xmm6
	vmulsd	%xmm9, %xmm7, %xmm7
	vmulsd	%xmm0, %xmm7, %xmm7
	vmulsd	%xmm6, %xmm0, %xmm0
	vmulsd	.LC88(%rip), %xmm0, %xmm6
	vdivsd	%xmm5, %xmm6, %xmm6
	jnb	.L1255
	cmpb	$0, 315(%rsp)
	je	.L1409
.L1255:
	leaq	10000(%r13), %rax
	movq	%rax, 72(%rsp)
	movl	%esi, %edx
	jmp	.L1188
	.p2align 4,,10
	.p2align 3
.L1207:
	movl	12(%rsp), %ecx
	leaq	misc_(%rip), %rax
	vmovsd	(%rax,%rbp,8), %xmm0
	cmpl	%ecx, 16(%rsp)
	je	.L1272
	cmpl	$5, %r11d
	jne	.L1272
	cmpl	$1, %r8d
	je	.L1213
	vaddsd	%xmm15, %xmm0, %xmm0
	vmovsd	152(%rsp), %xmm10
	vminsd	%xmm10, %xmm0, %xmm0
	vmovsd	%xmm0, (%rax,%rbp,8)
	vaddsd	(%rax,%r13,8), %xmm15, %xmm9
	vminsd	%xmm10, %xmm9, %xmm9
	vmovsd	%xmm9, (%rax,%r13,8)
	vmovsd	(%rax,%rbp,8), %xmm0
.L1212:
	movl	260(%rsp), %r8d
	vxorpd	%xmm8, %xmm8, %xmm8
	testl	%r8d, %r8d
	jne	.L1214
	vmaxsd	%xmm0, %xmm9, %xmm8
.L1214:
	vmovsd	152(%rsp), %xmm0
	vcomisd	%xmm8, %xmm0
	jbe	.L1399
	vmulsd	336(%rsp), %xmm5, %xmm9
	movl	%r11d, 408(%rsp)
	movl	%edx, 84(%rsp)
	vmovsd	%xmm11, 504(%rsp)
	vmovsd	%xmm13, 496(%rsp)
	vxorpd	320(%rsp), %xmm9, %xmm0
	vmovsd	%xmm3, 488(%rsp)
	vmovsd	%xmm6, 384(%rsp)
	vmovsd	%xmm7, 288(%rsp)
	vmovsd	%xmm4, 240(%rsp)
	vmovsd	%xmm2, 216(%rsp)
	vmovsd	%xmm1, 208(%rsp)
	vmovsd	%xmm8, 176(%rsp)
	vmovsd	%xmm5, 40(%rsp)
	vmovsd	%xmm9, 32(%rsp)
	call	exp@PLT
	movq	.LC8(%rip), %rax
	movl	12(%rsp), %edx
	vmovq	%rax, %xmm15
	movq	.LC90(%rip), %rax
	cmpl	%edx, 16(%rsp)
	vmovsd	32(%rsp), %xmm9
	vmovsd	40(%rsp), %xmm5
	movl	84(%rsp), %edx
	vmovsd	176(%rsp), %xmm8
	vmovsd	208(%rsp), %xmm1
	vmovsd	216(%rsp), %xmm2
	vmovsd	240(%rsp), %xmm4
	vmovsd	288(%rsp), %xmm7
	vmovsd	384(%rsp), %xmm6
	movl	408(%rsp), %r11d
	vmovsd	488(%rsp), %xmm3
	vmovsd	496(%rsp), %xmm13
	vmovsd	504(%rsp), %xmm11
	vmovsd	%xmm0, %xmm0, %xmm10
	leaq	pos_(%rip), %r10
	vmovq	%rax, %xmm14
	vxorps	%xmm12, %xmm12, %xmm12
	je	.L1410
	movl	260(%rsp), %edi
	vxorpd	%xmm0, %xmm0, %xmm0
	testl	%edi, %edi
	je	.L1411
	movl	316(%rsp), %esi
	testl	%esi, %esi
	jne	.L1412
.L1218:
	vdivsd	%xmm3, %xmm0, %xmm0
	vmovsd	.LC103(%rip), %xmm8
	vsubsd	%xmm9, %xmm8, %xmm8
	vmulsd	%xmm0, %xmm8, %xmm8
	vdivsd	%xmm5, %xmm8, %xmm8
	vaddsd	%xmm6, %xmm8, %xmm6
.L1219:
	vaddsd	%xmm0, %xmm7, %xmm7
	jmp	.L1399
	.p2align 4,,10
	.p2align 3
.L1401:
	movl	20(%rsp), %eax
	movl	%eax, 12(%r14)
	cmpl	$5, %r11d
	je	.L1413
	cmpl	$7, %r11d
	je	.L1414
	cmpl	$6, %r11d
	je	.L1415
	cmpl	$4, %r11d
	jne	.L1220
	leaq	10090(,%rbp,4), %rax
	decl	(%r15,%rax,4)
	addq	$16, %r14
	leaq	10090(,%r13,4), %rax
	decl	(%r15,%rax,4)
	cmpq	56(%rsp), %r14
	jne	.L1225
	.p2align 4,,10
	.p2align 3
.L1402:
	vmovd	264(%rsp), %xmm4
	vmovd	224(%rsp), %xmm2
	vpinsrd	$1, 276(%rsp), %xmm4, %xmm0
	vmovd	252(%rsp), %xmm5
	movl	196(%rsp), %eax
	vpinsrd	$1, 272(%rsp), %xmm2, %xmm1
	vmovq	%xmm0, 8+ssb2_(%rip)
	vpinsrd	$1, 268(%rsp), %xmm5, %xmm0
	movl	%eax, 80024+misc_(%rip)
	vpunpcklqdq	%xmm1, %xmm0, %xmm0
	vmovdqu	%xmm0, 2000012+cmapi_(%rip)
.L1397:
	addq	$536, %rsp
	.cfi_remember_state
	.cfi_def_cfa_offset 56
	popq	%rbx
	.cfi_def_cfa_offset 48
	popq	%rbp
	.cfi_def_cfa_offset 40
	popq	%r12
	.cfi_def_cfa_offset 32
	popq	%r13
	.cfi_def_cfa_offset 24
	popq	%r14
	.cfi_def_cfa_offset 16
	popq	%r15
	.cfi_def_cfa_offset 8
	ret
	.p2align 4,,10
	.p2align 3
.L1404:
	.cfi_restore_state
	leaq	sequence_(%rip), %r8
	leaq	10000(%rbp), %rdi
	movq	%rdi, 64(%rsp)
	movl	(%r8,%rdi,4), %edi
	movl	%edi, 84(%rsp)
	leaq	10000(%r13), %rdi
	movl	(%r8,%rdi,4), %r8d
	movq	%rdi, 72(%rsp)
	movl	84(%rsp), %edi
	movl	%r8d, %r9d
	movl	%r8d, 176(%rsp)
	leal	(%rdi,%rdi,4), %r8d
	leal	(%rdi,%r8,4), %r8d
	addl	%r9d, %r8d
	movl	%r8d, 208(%rsp)
	leaq	sig_(%rip), %rdi
	movslq	%r8d, %r8
	vmovsd	-8(%rdi,%r8,8), %xmm9
	vmaxsd	200(%rsp), %xmm9, %xmm6
	vmulsd	168(%rsp), %xmm6, %xmm6
	vcomisd	%xmm5, %xmm6
	jbe	.L1140
	cmpl	$2, 84(%rsp)
	leaq	0(,%rbp,4), %rdi
	movl	$1, %r8d
	movq	%rdi, 216(%rsp)
	cmovne	228(%rsp), %r8d
	addq	$10090, %rdi
	movq	%rdi, 408(%rsp)
	movl	(%r15,%rdi,4), %edi
	movq	.LC10(%rip), %r9
	movl	%edi, 488(%rsp)
	cmpl	%r8d, %edi
	jge	.L1143
	leaq	0(%rbp,%rbp,2), %r8
	addq	%r8, %r8
	vmulsd	720008(%r10,%r8,8), %xmm2, %xmm6
	vfmadd231sd	720000(%r10,%r8,8), %xmm1, %xmm6
	vfmadd231sd	720016(%r10,%r8,8), %xmm4, %xmm6
	vdivsd	%xmm5, %xmm6, %xmm6
	vandpd	.LC69(%rip), %xmm6, %xmm7
	vmovq	%xmm7, %r9
.L1143:
	cmpl	$2, 176(%rsp)
	movl	$1, %r8d
	cmovne	228(%rsp), %r8d
	leaq	0(,%r13,4), %rdi
	movl	%r8d, 288(%rsp)
	leaq	10090(%rdi), %r8
	movq	%r8, 384(%rsp)
	movl	288(%rsp), %r8d
	movq	%rdi, 240(%rsp)
	vxorpd	%xmm6, %xmm6, %xmm6
	cmpl	%r8d, 40360(%r15,%rdi,4)
	jl	.L1416
.L1145:
	vmovsd	184(%rsp), %xmm7
	vcomisd	%xmm7, %xmm6
	jbe	.L1146
	vmovq	%r9, %xmm10
	vcomisd	%xmm7, %xmm10
	ja	.L1417
.L1146:
	movq	216(%rsp), %rdi
	vmovsd	%xmm15, %xmm15, %xmm7
	leaq	4(%rdi), %r8
	movl	248(%rsp), %edi
	movq	%r8, 288(%rsp)
	leaq	neigh_(%rip), %r8
	cmpl	%edi, -4(%r8,%r12,8)
	setl	%r8b
	movq	216(%rsp), %rdi
	movzbl	%r8b, %r8d
	addl	40364(%r15,%rdi,4), %r8d
	cmpl	$1, 40(%rsp)
	jle	.L1150
	movslq	84(%rsp), %rdi
	cmpl	%r8d, 104(%r15,%rdi,4)
	jle	.L1150
	leaq	-6(%r12,%r12,2), %r8
	addq	%r8, %r8
	vmovsd	240008(%r10,%r8,8), %xmm10
	vmovsd	240000(%r10,%r8,8), %xmm7
	vmovsd	240048(%r10,%r8,8), %xmm8
	vmovsd	%xmm10, 496(%rsp)
	vmovq	%xmm7, %rdi
	vmovsd	240056(%r10,%r8,8), %xmm10
	vmovsd	%xmm8, 504(%rsp)
	vsubsd	%xmm8, %xmm7, %xmm8
	vmovsd	496(%rsp), %xmm7
	vmovsd	%xmm10, 512(%rsp)
	vsubsd	%xmm10, %xmm7, %xmm7
	vmovsd	240016(%r10,%r8,8), %xmm10
	movq	240064(%r10,%r8,8), %r8
	vmulsd	%xmm2, %xmm7, %xmm7
	vmovsd	%xmm10, 520(%rsp)
	vfmadd231sd	%xmm1, %xmm8, %xmm7
	vmovq	%r8, %xmm8
	vsubsd	%xmm8, %xmm10, %xmm8
	vfmadd132sd	%xmm4, %xmm7, %xmm8
	vxorpd	%xmm7, %xmm7, %xmm7
	vcomisd	%xmm8, %xmm7
	jbe	.L1418
	.p2align 4,,10
	.p2align 3
.L1150:
	vcomisd	184(%rsp), %xmm6
	jbe	.L1151
	vmovsd	280(%rsp), %xmm6
	vcomisd	%xmm7, %xmm6
	jbe	.L1151
	movl	$7, 208(%rsp)
	vmovsd	360(%rsp), %xmm9
	movl	$7, %r8d
.L1148:
	vmulsd	168(%rsp), %xmm9, %xmm6
	vcomisd	%xmm5, %xmm6
	jb	.L1140
	movl	208(%rsp), %edi
	vcvtsi2sdl	%ecx, %xmm12, %xmm6
	xorl	%edi, %esi
	sarl	$31, %esi
	vmovsd	152(%rsp), %xmm7
	addl	%esi, %edi
	xorl	%edi, %esi
	vcomisd	%xmm6, %xmm7
	movl	%esi, 208(%rsp)
	movl	%esi, 12(%r14)
	jbe	.L1158
	leal	1(%rcx), %eax
	movl	%eax, 8(%r14)
.L1158:
	cmpl	$5, %r8d
	je	.L1419
	movl	%eax, %esi
	cmpl	$7, %r8d
	je	.L1420
	cmpl	$6, %r8d
	je	.L1421
	cmpl	$4, %r8d
	je	.L1422
	movl	$5, %r8d
	jmp	.L1161
	.p2align 4,,10
	.p2align 3
.L1151:
	movq	240(%rsp), %rdi
	vmovsd	%xmm15, %xmm15, %xmm6
	leaq	4(%rdi), %r8
	movl	248(%rsp), %edi
	movq	%r8, 496(%rsp)
	leaq	neigh_(%rip), %r8
	cmpl	-4(%r8,%rbx,8), %edi
	setg	%r8b
	movq	240(%rsp), %rdi
	movzbl	%r8b, %r8d
	addl	40364(%r15,%rdi,4), %r8d
	cmpl	$1, 28(%rsp)
	jle	.L1154
	movslq	176(%rsp), %rdi
	cmpl	%r8d, 104(%r15,%rdi,4)
	jle	.L1154
	leaq	0(%r13,%r13,2), %r8
	addq	%r8, %r8
	vmovsd	240008(%r10,%r8,8), %xmm8
	vmovsd	240000(%r10,%r8,8), %xmm6
	vsubsd	239960(%r10,%r8,8), %xmm8, %xmm10
	vsubsd	239952(%r10,%r8,8), %xmm6, %xmm6
	vmulsd	%xmm10, %xmm2, %xmm8
	vmovq	%xmm6, %rdi
	vfmadd231sd	%xmm6, %xmm1, %xmm8
	vmovsd	240016(%r10,%r8,8), %xmm6
	vsubsd	239968(%r10,%r8,8), %xmm6, %xmm6
	vfmadd231sd	%xmm4, %xmm6, %xmm8
	vmovq	%xmm6, %r8
	vxorpd	%xmm6, %xmm6, %xmm6
	vcomisd	%xmm8, %xmm6
	ja	.L1154
	vmulsd	%xmm10, %xmm10, %xmm6
	vmovq	%rdi, %xmm10
	vmulsd	%xmm8, %xmm8, %xmm8
	vfmadd132sd	%xmm10, %xmm6, %xmm10
	vmovsd	%xmm10, %xmm10, %xmm6
	vmovq	%r8, %xmm10
	vfmadd132sd	%xmm10, %xmm6, %xmm10
	vmulsd	%xmm10, %xmm3, %xmm6
	vdivsd	%xmm6, %xmm8, %xmm6
	.p2align 4,,10
	.p2align 3
.L1154:
	vmovq	%r9, %xmm10
	vcomisd	184(%rsp), %xmm10
	ja	.L1423
	vmovsd	280(%rsp), %xmm10
	vcomisd	%xmm6, %xmm10
	jbe	.L1140
	vcomisd	%xmm7, %xmm10
	jbe	.L1140
	movl	16(%rsp), %edi
	movl	$2, %r8d
	cmpl	%r8d, %edi
	movl	%edi, %r9d
	cmovg	%r8d, %r9d
	addl	$2, %r9d
	movl	%r9d, 404(%rsp)
	movl	12(%rsp), %r9d
	cmpl	%r8d, %r9d
	cmovle	%r9d, %r8d
	movq	288(%rsp), %r9
	addl	$2, %r8d
	movl	%r8d, 416(%rsp)
	movslq	%r8d, %r8
	leaq	10085(%r9,%r8), %r9
	movq	%r9, 288(%rsp)
	leaq	(%r8,%r8,4), %r9
	leaq	(%r8,%r9,4), %r8
	movslq	84(%rsp), %r9
	leaq	-16(%r9,%r8), %r8
	movl	(%r15,%r8,4), %r8d
	movq	288(%rsp), %r9
	cmpl	%r8d, (%r15,%r9,4)
	setl	%r9b
	movzbl	%r9b, %r9d
	movl	%r9d, 288(%rsp)
	movl	12(%rsp), %r9d
	xorl	%r8d, %r8d
	cmpl	%r9d, %edi
	movl	32(%rsp), %r9d
	setne	%r8b
	xorl	$1, %r9d
	orl	%r9d, %r8d
	cmpl	$20, 84(%rsp)
	jne	.L1157
	cmpl	$20, 176(%rsp)
	jne	.L1157
	movl	28(%rsp), %r9d
	subl	40(%rsp), %r9d
	movl	%r9d, %edi
	sarl	$31, %edi
	xorl	%edi, %r9d
	subl	%edi, %r9d
	cmpl	$3, %r9d
	je	.L1140
.L1157:
	movl	288(%rsp), %r9d
	testl	%r9d, %r9d
	je	.L1140
	testl	%r8d, %r8d
	je	.L1140
	movslq	404(%rsp), %r8
	movq	496(%rsp), %rdi
	leaq	(%r8,%r8,4), %r9
	leaq	10085(%rdi,%r8), %rdi
	leaq	(%r8,%r9,4), %r8
	movslq	176(%rsp), %r9
	leaq	-16(%r9,%r8), %r8
	movl	(%r15,%r8,4), %r9d
	cmpl	%r9d, (%r15,%rdi,4)
	jge	.L1140
	movl	436(%rsp), %edi
	testl	%edi, %edi
	je	.L1400
	movl	$5, 208(%rsp)
	vmovsd	480(%rsp), %xmm9
.L1400:
	movl	$5, %r8d
	jmp	.L1148
	.p2align 4,,10
	.p2align 3
.L1396:
	vmovsd	232(%rsp), %xmm7
	leaq	10000(%rbp), %rax
	vdivsd	%xmm5, %xmm7, %xmm6
	movq	%rax, 64(%rsp)
	leaq	10000(%r13), %rax
	movq	%rax, 72(%rsp)
	movl	%esi, %edx
	vmulsd	%xmm6, %xmm6, %xmm0
	vmulsd	%xmm6, %xmm0, %xmm0
	vmulsd	%xmm0, %xmm0, %xmm0
	vmovsd	%xmm0, %xmm0, %xmm8
	vmulsd	.LC83(%rip), %xmm0, %xmm6
	vsubsd	%xmm15, %xmm0, %xmm7
	vfnmadd132sd	.LC74(%rip), %xmm15, %xmm8
	vmulsd	.LC88(%rip), %xmm0, %xmm0
	vfmadd132sd	%xmm6, %xmm15, %xmm7
	vmulsd	%xmm8, %xmm0, %xmm0
	vdivsd	%xmm5, %xmm0, %xmm6
.L1188:
	movl	24(%rsp), %eax
	testl	%eax, %eax
	je	.L1399
	movl	32(%rsp), %r9d
	testl	%r9d, %r9d
	jne	.L1207
.L1399:
	vminsd	.LC82(%rip), %xmm6, %xmm6
	vmaxsd	.LC86(%rip), %xmm6, %xmm6
	jmp	.L1209
	.p2align 4,,10
	.p2align 3
.L1391:
	testl	%eax, %eax
	jle	.L1179
	movl	$1, %esi
	subl	%eax, %esi
	movl	%esi, 8(%r14)
	movl	$1, %r8d
	jmp	.L1177
	.p2align 4,,10
	.p2align 3
.L1423:
	vmovsd	280(%rsp), %xmm7
	vcomisd	%xmm6, %xmm7
	ja	.L1244
	.p2align 4,,10
	.p2align 3
.L1140:
	testl	%eax, %eax
	je	.L1247
	leal	-1(%rcx), %edi
	xorl	%edi, %eax
	sarl	$31, %eax
	leal	(%rdi,%rax), %esi
	xorl	%eax, %esi
	movl	%esi, 8(%r14)
	movl	$1, %r8d
.L1161:
	movl	192(%rsp), %eax
	testl	%eax, %eax
	je	.L1185
	cmpl	$4, 84(%rsp)
	jne	.L1185
.L1182:
	cmpl	$1, %r11d
	jle	.L1185
	cmpb	$0, 403(%rsp)
	je	.L1185
	jmp	.L1186
	.p2align 4,,10
	.p2align 3
.L1413:
	movl	28(%rsp), %edx
	leaq	ssb_(%rip), %rax
	cmpl	%edx, (%rax,%rbp,4)
	je	.L1424
.L1222:
	salq	$2, %r12
	decl	40348(%r15,%r12,4)
	movl	16(%rsp), %eax
	movl	$2, %r8d
	salq	$2, %rbx
	decl	40348(%r15,%rbx,4)
	movl	%eax, %r9d
	cmpl	%r8d, %eax
	movl	12(%rsp), %eax
	cmovg	%r8d, %r9d
	cmpl	%r8d, %eax
	cmovle	%eax, %r8d
	leal	2(%r9), %edx
	leal	2(%r8), %eax
	movl	%eax, 416(%rsp)
	cltq
	leaq	10085(%r12,%rax), %rax
	decl	(%r15,%rax,4)
	movslq	%edx, %rax
	leaq	10085(%rbx,%rax), %rax
	movl	%edx, 404(%rsp)
	decl	(%r15,%rax,4)
	jmp	.L1220
	.p2align 4,,10
	.p2align 3
.L1247:
	xorl	%esi, %esi
	movl	$1, %r8d
	jmp	.L1161
	.p2align 4,,10
	.p2align 3
.L1416:
	leaq	0(%r13,%r13,2), %r8
	addq	%r8, %r8
	vmulsd	720008(%r10,%r8,8), %xmm2, %xmm6
	vfmadd231sd	720000(%r10,%r8,8), %xmm1, %xmm6
	vfmadd231sd	720016(%r10,%r8,8), %xmm4, %xmm6
	vdivsd	%xmm5, %xmm6, %xmm6
	vandpd	.LC69(%rip), %xmm6, %xmm6
	jmp	.L1145
	.p2align 4,,10
	.p2align 3
.L1408:
	vmovsd	88(%rsp), %xmm7
	vcomisd	%xmm5, %xmm7
	jb	.L1395
	vmovsd	368(%rsp), %xmm7
	vmovsd	376(%rsp), %xmm0
	jmp	.L1200
	.p2align 4,,10
	.p2align 3
.L1409:
	vmovsd	232(%rsp), %xmm6
	leaq	10000(%r13), %rax
	vdivsd	%xmm5, %xmm6, %xmm6
	movq	%rax, 72(%rsp)
	movl	%esi, %edx
	vmulsd	%xmm6, %xmm6, %xmm10
	vmulsd	%xmm6, %xmm10, %xmm10
	vmulsd	%xmm10, %xmm10, %xmm10
	vfnmadd132sd	%xmm10, %xmm15, %xmm8
	vmulsd	%xmm9, %xmm10, %xmm9
	vsubsd	%xmm15, %xmm10, %xmm6
	vfmadd132sd	%xmm10, %xmm0, %xmm8
	vfmadd132sd	%xmm6, %xmm15, %xmm9
	vmulsd	.LC88(%rip), %xmm8, %xmm8
	vaddsd	%xmm9, %xmm7, %xmm7
	vdivsd	%xmm5, %xmm8, %xmm6
	jmp	.L1188
	.p2align 4,,10
	.p2align 3
.L1424:
	movl	$0, 40000(%rax,%rbp,4)
	movl	$0, (%rax,%rbp,4)
	movl	$0, 40000(%rax,%r13,4)
	movl	$0, (%rax,%r13,4)
	jmp	.L1222
	.p2align 4,,10
	.p2align 3
.L1417:
	movl	28(%rsp), %r8d
	subl	40(%rsp), %r8d
	movl	%r8d, %edi
	sarl	$31, %edi
	xorl	%edi, %r8d
	subl	%edi, %r8d
	cmpl	$4, %r8d
	jne	.L1262
	cmpl	$1, 20(%rsp)
	je	.L1146
.L1262:
	leaq	0(%rbp,%rbp,2), %r8
	leaq	(%r8,%r8), %rdi
	vmovsd	720008(%r10,%rdi,8), %xmm7
	leaq	0(%r13,%r13,2), %r8
	addq	%r8, %r8
	vmulsd	720008(%r10,%r8,8), %xmm7, %xmm7
	vmovsd	720000(%r10,%rdi,8), %xmm10
	vfmadd231sd	720000(%r10,%r8,8), %xmm10, %xmm7
	vmovsd	720016(%r10,%rdi,8), %xmm10
	vfmadd231sd	720016(%r10,%r8,8), %xmm10, %xmm7
	vandpd	.LC69(%rip), %xmm7, %xmm7
	vcomisd	352(%rsp), %xmm7
	jbe	.L1146
	movl	$4, 208(%rsp)
	vmovsd	392(%rsp), %xmm9
	movl	$4, %r8d
	jmp	.L1148
	.p2align 4,,10
	.p2align 3
.L1272:
	vmovsd	(%rax,%r13,8), %xmm9
	jmp	.L1212
	.p2align 4,,10
	.p2align 3
.L1179:
	je	.L1249
	leal	1(%rax), %esi
	movl	%esi, 8(%r14)
	movl	$1, %r8d
	jmp	.L1177
	.p2align 4,,10
	.p2align 3
.L1414:
	leaq	10087(,%r12,4), %rax
	decl	(%r15,%rax,4)
	leaq	10090(,%r13,4), %rax
	decl	(%r15,%rax,4)
	jmp	.L1220
	.p2align 4,,10
	.p2align 3
.L1405:
	leal	-1(%rsi), %esi
	movslq	%esi, %rsi
	incl	252(%rsp)
	incl	(%r15,%rsi,4)
	jmp	.L1176
	.p2align 4,,10
	.p2align 3
.L1406:
	leaq	10000(%r13), %rdi
	cmpl	$4, 40000(%rax,%r13,4)
	movq	%rdi, 72(%rsp)
	jne	.L1182
	cmpl	$5, %r11d
	jne	.L1182
	movl	28(%rsp), %edi
	leaq	ssb_(%rip), %rax
	cmpl	%edi, (%rax,%rbp,4)
	je	.L1183
	movl	24(%rsp), %r9d
	testl	%r9d, %r9d
	je	.L1185
.L1183:
	cmpl	%edi, (%rax,%rbp,4)
	jne	.L1186
	vmovsd	%xmm15, %xmm15, %xmm0
	testl	%esi, %esi
	jns	.L1187
	vcvtsi2sdl	%esi, %xmm12, %xmm0
	vmulsd	472(%rsp), %xmm0, %xmm0
	vxorpd	.LC11(%rip), %xmm0, %xmm0
.L1187:
	vsubsd	440(%rsp), %xmm5, %xmm9
	vmovsd	464(%rsp), %xmm6
	leaq	neigh_(%rip), %rax
	vmulsd	%xmm9, %xmm9, %xmm10
	movl	-4(%rax,%rbx,8), %edx
	addl	-4(%rax,%r12,8), %edx
	vmulsd	448(%rsp), %xmm10, %xmm8
	vaddsd	456(%rsp), %xmm8, %xmm7
	vfmadd132sd	.LC83(%rip), %xmm6, %xmm8
	vmulsd	%xmm10, %xmm7, %xmm7
	vmulsd	%xmm9, %xmm8, %xmm8
	vmulsd	%xmm0, %xmm7, %xmm7
	vmulsd	%xmm0, %xmm8, %xmm6
	cmpl	%edx, 420(%rsp)
	jle	.L1251
	vcomisd	.LC102(%rip), %xmm10
	jbe	.L1251
	movl	12(%r14), %edi
	testl	%edi, %edi
	jle	.L1189
	decl	268(%rsp)
.L1190:
	testl	%esi, %esi
	jle	.L1191
	movl	$1, %edx
	subl	%esi, %edx
	movl	%edx, 8(%r14)
.L1192:
	movl	192(%rsp), %ecx
	testl	%ecx, %ecx
	je	.L1188
	movl	432(%rsp), %eax
	testl	%eax, %eax
	jle	.L1193
	movl	40(%rsp), %edi
	movl	28(%rsp), %r9d
	leaq	240008+nat_(%rip), %rsi
	xorl	%eax, %eax
	jmp	.L1196
.L1194:
	cmpl	%ecx, %edi
	jne	.L1195
	cmpl	28(%rsp), %r9d
	je	.L1425
.L1195:
	addq	$8, %rsi
	cmpq	%rsi, 424(%rsp)
	je	.L1426
.L1196:
	movl	(%rsi), %ecx
	movl	%ecx, 28(%rsp)
	movl	4(%rsi), %ecx
	cmpl	28(%rsp), %edi
	jne	.L1194
	cmpl	%ecx, %r9d
	jne	.L1194
	decl	264(%rsp)
	movl	$1, %eax
	jmp	.L1194
	.p2align 4,,10
	.p2align 3
.L1415:
	leaq	10090(,%rbp,4), %rax
	decl	(%r15,%rax,4)
	leaq	10087(,%rbx,4), %rax
	decl	(%r15,%rax,4)
	jmp	.L1220
	.p2align 4,,10
	.p2align 3
.L1249:
	xorl	%esi, %esi
	movl	$1, %r8d
	jmp	.L1177
	.p2align 4,,10
	.p2align 3
.L1412:
	vdivsd	%xmm5, %xmm0, %xmm0
	vmovsd	.LC9(%rip), %xmm3
	vsubsd	%xmm9, %xmm3, %xmm8
	vmulsd	%xmm0, %xmm8, %xmm8
	vdivsd	%xmm5, %xmm8, %xmm8
	vaddsd	%xmm6, %xmm8, %xmm6
	jmp	.L1219
	.p2align 4,,10
	.p2align 3
.L1407:
	leaq	10000(%r13), %rdi
	cmpl	$4, 40000(%rax,%r13,4)
	movq	%rdi, 72(%rsp)
	jne	.L1186
	cmpl	$5, %r11d
	jne	.L1186
	movl	28(%rsp), %edi
	leaq	ssb_(%rip), %rax
	jmp	.L1183
	.p2align 4,,10
	.p2align 3
.L1395:
	vxorpd	%xmm7, %xmm7, %xmm7
	jmp	.L1200
	.p2align 4,,10
	.p2align 3
.L1244:
	movl	$6, 208(%rsp)
	vmovsd	200(%rsp), %xmm9
	movl	$6, %r8d
	jmp	.L1148
	.p2align 4,,10
	.p2align 3
.L1411:
	vsubsd	152(%rsp), %xmm8, %xmm8
	movl	316(%rsp), %esi
	vmulsd	%xmm10, %xmm8, %xmm8
	vmulsd	344(%rsp), %xmm8, %xmm0
	testl	%esi, %esi
	je	.L1218
	jmp	.L1412
.L1418:
	vmovsd	504(%rsp), %xmm7
	vmovq	%rdi, %xmm10
	vsubsd	%xmm10, %xmm7, %xmm7
	vmovsd	512(%rsp), %xmm10
	vmulsd	%xmm8, %xmm8, %xmm8
	vsubsd	496(%rsp), %xmm10, %xmm10
	vmulsd	%xmm10, %xmm10, %xmm10
	vfmadd132sd	%xmm7, %xmm10, %xmm7
	vmovsd	%xmm7, %xmm7, %xmm10
	vmovq	%r8, %xmm7
	vsubsd	520(%rsp), %xmm7, %xmm7
	vfmadd132sd	%xmm7, %xmm10, %xmm7
	vmulsd	%xmm7, %xmm3, %xmm7
	vdivsd	%xmm7, %xmm8, %xmm7
	jmp	.L1150
	.p2align 4,,10
	.p2align 3
.L1419:
	movq	216(%rsp), %rdi
	movq	240(%rsp), %r9
	incl	40364(%r15,%rdi,4)
	movslq	416(%rsp), %rsi
	leaq	10089(%rdi,%rsi), %rsi
	incl	40364(%r15,%r9,4)
	incl	(%r15,%rsi,4)
	movslq	404(%rsp), %rsi
	leaq	10089(%r9,%rsi), %rsi
	incl	(%r15,%rsi,4)
	cmpl	$4, 176(%rsp)
	movl	%eax, %esi
	jne	.L1161
	cmpl	$4, 84(%rsp)
	jne	.L1161
	leaq	neigh_(%rip), %rax
	movl	-4(%rax,%r12,8), %edi
	addl	-4(%rax,%rbx,8), %edi
	cmpl	420(%rsp), %edi
	jge	.L1185
	movq	64(%rsp), %rdi
	leaq	ssb_(%rip), %rax
	movl	(%rax,%rdi,4), %r9d
	testl	%r9d, %r9d
	jne	.L1185
	movq	72(%rsp), %r9
	cmpl	$0, (%rax,%r9,4)
	jne	.L1185
	movl	$1, (%rax,%rdi,4)
	movl	28(%rsp), %edi
	movl	$1, (%rax,%r9,4)
	movl	%edi, (%rax,%rbp,4)
	movl	40(%rsp), %edi
	movl	%edi, (%rax,%r13,4)
	movl	208(%rsp), %eax
	testl	%eax, %eax
	jle	.L1163
	incl	268(%rsp)
.L1164:
	movl	192(%rsp), %eax
	testl	%eax, %eax
	je	.L1185
	cmpl	$0, 432(%rsp)
	jle	.L1166
	movl	$0, 72(%rsp)
	movl	%edx, 84(%rsp)
	movl	40(%rsp), %edi
	movl	28(%rsp), %r9d
	leaq	240008+nat_(%rip), %rax
	jmp	.L1169
.L1167:
	cmpl	28(%rsp), %edi
	jne	.L1168
	cmpl	40(%rsp), %r9d
	je	.L1427
.L1168:
	addq	$8, %rax
	cmpq	%rax, 424(%rsp)
	je	.L1428
.L1169:
	movl	(%rax), %edx
	movl	%edx, 40(%rsp)
	movl	4(%rax), %edx
	movl	%edx, 28(%rsp)
	cmpl	40(%rsp), %edi
	jne	.L1167
	cmpl	%edx, %r9d
	jne	.L1167
	incl	264(%rsp)
	movl	$1, 72(%rsp)
	jmp	.L1167
	.p2align 4,,10
